
bin/rosetta-server:     file format elf64-x86-64


Disassembly of section .init:

000000000040033c <_init>:
  40033c:	f3 0f 1e fa          	endbr64
  400340:	48 83 ec 08          	sub    rsp,0x8
  400344:	48 8b 05 95 dc 01 00 	mov    rax,QWORD PTR [rip+0x1dc95]        # 41dfe0 <__gmon_start__@Base>
  40034b:	48 85 c0             	test   rax,rax
  40034e:	74 02                	je     400352 <_init+0x16>
  400350:	ff d0                	call   rax
  400352:	48 83 c4 08          	add    rsp,0x8
  400356:	c3                   	ret

Disassembly of section .plt:

0000000000400360 <free@plt-0x10>:
  400360:	ff 35 8a dc 01 00    	push   QWORD PTR [rip+0x1dc8a]        # 41dff0 <_GLOBAL_OFFSET_TABLE_+0x8>
  400366:	ff 25 8c dc 01 00    	jmp    QWORD PTR [rip+0x1dc8c]        # 41dff8 <_GLOBAL_OFFSET_TABLE_+0x10>
  40036c:	0f 1f 40 00          	nop    DWORD PTR [rax+0x0]

0000000000400370 <free@plt>:
  400370:	ff 25 8a dc 01 00    	jmp    QWORD PTR [rip+0x1dc8a]        # 41e000 <free@GLIBC_2.2.5>
  400376:	68 00 00 00 00       	push   0x0
  40037b:	e9 e0 ff ff ff       	jmp    400360 <_init+0x24>

0000000000400380 <recv@plt>:
  400380:	ff 25 82 dc 01 00    	jmp    QWORD PTR [rip+0x1dc82]        # 41e008 <recv@GLIBC_2.2.5>
  400386:	68 01 00 00 00       	push   0x1
  40038b:	e9 d0 ff ff ff       	jmp    400360 <_init+0x24>

0000000000400390 <putchar@plt>:
  400390:	ff 25 7a dc 01 00    	jmp    QWORD PTR [rip+0x1dc7a]        # 41e010 <putchar@GLIBC_2.2.5>
  400396:	68 02 00 00 00       	push   0x2
  40039b:	e9 c0 ff ff ff       	jmp    400360 <_init+0x24>

00000000004003a0 <__errno_location@plt>:
  4003a0:	ff 25 72 dc 01 00    	jmp    QWORD PTR [rip+0x1dc72]        # 41e018 <__errno_location@GLIBC_2.2.5>
  4003a6:	68 03 00 00 00       	push   0x3
  4003ab:	e9 b0 ff ff ff       	jmp    400360 <_init+0x24>

00000000004003b0 <unlink@plt>:
  4003b0:	ff 25 6a dc 01 00    	jmp    QWORD PTR [rip+0x1dc6a]        # 41e020 <unlink@GLIBC_2.2.5>
  4003b6:	68 04 00 00 00       	push   0x4
  4003bb:	e9 a0 ff ff ff       	jmp    400360 <_init+0x24>

00000000004003c0 <strncmp@plt>:
  4003c0:	ff 25 62 dc 01 00    	jmp    QWORD PTR [rip+0x1dc62]        # 41e028 <strncmp@GLIBC_2.2.5>
  4003c6:	68 05 00 00 00       	push   0x5
  4003cb:	e9 90 ff ff ff       	jmp    400360 <_init+0x24>

00000000004003d0 <puts@plt>:
  4003d0:	ff 25 5a dc 01 00    	jmp    QWORD PTR [rip+0x1dc5a]        # 41e030 <puts@GLIBC_2.2.5>
  4003d6:	68 06 00 00 00       	push   0x6
  4003db:	e9 80 ff ff ff       	jmp    400360 <_init+0x24>

00000000004003e0 <sigaction@plt>:
  4003e0:	ff 25 52 dc 01 00    	jmp    QWORD PTR [rip+0x1dc52]        # 41e038 <sigaction@GLIBC_2.2.5>
  4003e6:	68 07 00 00 00       	push   0x7
  4003eb:	e9 70 ff ff ff       	jmp    400360 <_init+0x24>

00000000004003f0 <fread@plt>:
  4003f0:	ff 25 4a dc 01 00    	jmp    QWORD PTR [rip+0x1dc4a]        # 41e040 <fread@GLIBC_2.2.5>
  4003f6:	68 08 00 00 00       	push   0x8
  4003fb:	e9 60 ff ff ff       	jmp    400360 <_init+0x24>

0000000000400400 <setsockopt@plt>:
  400400:	ff 25 42 dc 01 00    	jmp    QWORD PTR [rip+0x1dc42]        # 41e048 <setsockopt@GLIBC_2.2.5>
  400406:	68 09 00 00 00       	push   0x9
  40040b:	e9 50 ff ff ff       	jmp    400360 <_init+0x24>

0000000000400410 <fclose@plt>:
  400410:	ff 25 3a dc 01 00    	jmp    QWORD PTR [rip+0x1dc3a]        # 41e050 <fclose@GLIBC_2.2.5>
  400416:	68 0a 00 00 00       	push   0xa
  40041b:	e9 40 ff ff ff       	jmp    400360 <_init+0x24>

0000000000400420 <send@plt>:
  400420:	ff 25 32 dc 01 00    	jmp    QWORD PTR [rip+0x1dc32]        # 41e058 <send@GLIBC_2.2.5>
  400426:	68 0b 00 00 00       	push   0xb
  40042b:	e9 30 ff ff ff       	jmp    400360 <_init+0x24>

0000000000400430 <printf@plt>:
  400430:	ff 25 2a dc 01 00    	jmp    QWORD PTR [rip+0x1dc2a]        # 41e060 <printf@GLIBC_2.2.5>
  400436:	68 0c 00 00 00       	push   0xc
  40043b:	e9 20 ff ff ff       	jmp    400360 <_init+0x24>

0000000000400440 <gettimeofday@plt>:
  400440:	ff 25 22 dc 01 00    	jmp    QWORD PTR [rip+0x1dc22]        # 41e068 <gettimeofday@GLIBC_2.2.5>
  400446:	68 0d 00 00 00       	push   0xd
  40044b:	e9 10 ff ff ff       	jmp    400360 <_init+0x24>

0000000000400450 <memset@plt>:
  400450:	ff 25 1a dc 01 00    	jmp    QWORD PTR [rip+0x1dc1a]        # 41e070 <memset@GLIBC_2.2.5>
  400456:	68 0e 00 00 00       	push   0xe
  40045b:	e9 00 ff ff ff       	jmp    400360 <_init+0x24>

0000000000400460 <close@plt>:
  400460:	ff 25 12 dc 01 00    	jmp    QWORD PTR [rip+0x1dc12]        # 41e078 <close@GLIBC_2.2.5>
  400466:	68 0f 00 00 00       	push   0xf
  40046b:	e9 f0 fe ff ff       	jmp    400360 <_init+0x24>

0000000000400470 <memcmp@plt>:
  400470:	ff 25 0a dc 01 00    	jmp    QWORD PTR [rip+0x1dc0a]        # 41e080 <memcmp@GLIBC_2.2.5>
  400476:	68 10 00 00 00       	push   0x10
  40047b:	e9 e0 fe ff ff       	jmp    400360 <_init+0x24>

0000000000400480 <calloc@plt>:
  400480:	ff 25 02 dc 01 00    	jmp    QWORD PTR [rip+0x1dc02]        # 41e088 <calloc@GLIBC_2.2.5>
  400486:	68 11 00 00 00       	push   0x11
  40048b:	e9 d0 fe ff ff       	jmp    400360 <_init+0x24>

0000000000400490 <sigemptyset@plt>:
  400490:	ff 25 fa db 01 00    	jmp    QWORD PTR [rip+0x1dbfa]        # 41e090 <sigemptyset@GLIBC_2.2.5>
  400496:	68 12 00 00 00       	push   0x12
  40049b:	e9 c0 fe ff ff       	jmp    400360 <_init+0x24>

00000000004004a0 <memcpy@plt>:
  4004a0:	ff 25 f2 db 01 00    	jmp    QWORD PTR [rip+0x1dbf2]        # 41e098 <memcpy@GLIBC_2.14>
  4004a6:	68 13 00 00 00       	push   0x13
  4004ab:	e9 b0 fe ff ff       	jmp    400360 <_init+0x24>

00000000004004b0 <__isoc23_strtol@plt>:
  4004b0:	ff 25 ea db 01 00    	jmp    QWORD PTR [rip+0x1dbea]        # 41e0a0 <__isoc23_strtol@GLIBC_2.38>
  4004b6:	68 14 00 00 00       	push   0x14
  4004bb:	e9 a0 fe ff ff       	jmp    400360 <_init+0x24>

00000000004004c0 <pthread_mutex_unlock@plt>:
  4004c0:	ff 25 e2 db 01 00    	jmp    QWORD PTR [rip+0x1dbe2]        # 41e0a8 <pthread_mutex_unlock@GLIBC_2.2.5>
  4004c6:	68 15 00 00 00       	push   0x15
  4004cb:	e9 90 fe ff ff       	jmp    400360 <_init+0x24>

00000000004004d0 <pthread_detach@plt>:
  4004d0:	ff 25 da db 01 00    	jmp    QWORD PTR [rip+0x1dbda]        # 41e0b0 <pthread_detach@GLIBC_2.34>
  4004d6:	68 16 00 00 00       	push   0x16
  4004db:	e9 80 fe ff ff       	jmp    400360 <_init+0x24>

00000000004004e0 <listen@plt>:
  4004e0:	ff 25 d2 db 01 00    	jmp    QWORD PTR [rip+0x1dbd2]        # 41e0b8 <listen@GLIBC_2.2.5>
  4004e6:	68 17 00 00 00       	push   0x17
  4004eb:	e9 70 fe ff ff       	jmp    400360 <_init+0x24>

00000000004004f0 <bind@plt>:
  4004f0:	ff 25 ca db 01 00    	jmp    QWORD PTR [rip+0x1dbca]        # 41e0c0 <bind@GLIBC_2.2.5>
  4004f6:	68 18 00 00 00       	push   0x18
  4004fb:	e9 60 fe ff ff       	jmp    400360 <_init+0x24>

0000000000400500 <pthread_create@plt>:
  400500:	ff 25 c2 db 01 00    	jmp    QWORD PTR [rip+0x1dbc2]        # 41e0c8 <pthread_create@GLIBC_2.34>
  400506:	68 19 00 00 00       	push   0x19
  40050b:	e9 50 fe ff ff       	jmp    400360 <_init+0x24>

0000000000400510 <fopen@plt>:
  400510:	ff 25 ba db 01 00    	jmp    QWORD PTR [rip+0x1dbba]        # 41e0d0 <fopen@GLIBC_2.2.5>
  400516:	68 1a 00 00 00       	push   0x1a
  40051b:	e9 40 fe ff ff       	jmp    400360 <_init+0x24>

0000000000400520 <perror@plt>:
  400520:	ff 25 b2 db 01 00    	jmp    QWORD PTR [rip+0x1dbb2]        # 41e0d8 <perror@GLIBC_2.2.5>
  400526:	68 1b 00 00 00       	push   0x1b
  40052b:	e9 30 fe ff ff       	jmp    400360 <_init+0x24>

0000000000400530 <accept@plt>:
  400530:	ff 25 aa db 01 00    	jmp    QWORD PTR [rip+0x1dbaa]        # 41e0e0 <accept@GLIBC_2.2.5>
  400536:	68 1c 00 00 00       	push   0x1c
  40053b:	e9 20 fe ff ff       	jmp    400360 <_init+0x24>

0000000000400540 <exit@plt>:
  400540:	ff 25 a2 db 01 00    	jmp    QWORD PTR [rip+0x1dba2]        # 41e0e8 <exit@GLIBC_2.2.5>
  400546:	68 1d 00 00 00       	push   0x1d
  40054b:	e9 10 fe ff ff       	jmp    400360 <_init+0x24>

0000000000400550 <fwrite@plt>:
  400550:	ff 25 9a db 01 00    	jmp    QWORD PTR [rip+0x1db9a]        # 41e0f0 <fwrite@GLIBC_2.2.5>
  400556:	68 1e 00 00 00       	push   0x1e
  40055b:	e9 00 fe ff ff       	jmp    400360 <_init+0x24>

0000000000400560 <pthread_join@plt>:
  400560:	ff 25 92 db 01 00    	jmp    QWORD PTR [rip+0x1db92]        # 41e0f8 <pthread_join@GLIBC_2.34>
  400566:	68 1f 00 00 00       	push   0x1f
  40056b:	e9 f0 fd ff ff       	jmp    400360 <_init+0x24>

0000000000400570 <pthread_mutex_init@plt>:
  400570:	ff 25 8a db 01 00    	jmp    QWORD PTR [rip+0x1db8a]        # 41e100 <pthread_mutex_init@GLIBC_2.2.5>
  400576:	68 20 00 00 00       	push   0x20
  40057b:	e9 e0 fd ff ff       	jmp    400360 <_init+0x24>

0000000000400580 <pthread_mutex_lock@plt>:
  400580:	ff 25 82 db 01 00    	jmp    QWORD PTR [rip+0x1db82]        # 41e108 <pthread_mutex_lock@GLIBC_2.2.5>
  400586:	68 21 00 00 00       	push   0x21
  40058b:	e9 d0 fd ff ff       	jmp    400360 <_init+0x24>

0000000000400590 <socket@plt>:
  400590:	ff 25 7a db 01 00    	jmp    QWORD PTR [rip+0x1db7a]        # 41e110 <socket@GLIBC_2.2.5>
  400596:	68 22 00 00 00       	push   0x22
  40059b:	e9 c0 fd ff ff       	jmp    400360 <_init+0x24>

Disassembly of section .text:

00000000004005c0 <tcp_init_communication.cold>:
  4005c0:	bf a0 8a 41 00       	mov    edi,0x418aa0
  4005c5:	e8 56 ff ff ff       	call   400520 <perror@plt>
  4005ca:	e9 22 1a 00 00       	jmp    401ff1 <tcp_init_communication+0x171>
  4005cf:	bf 28 8a 41 00       	mov    edi,0x418a28
  4005d4:	e8 47 ff ff ff       	call   400520 <perror@plt>
  4005d9:	e9 13 1a 00 00       	jmp    401ff1 <tcp_init_communication+0x171>
  4005de:	bf c0 89 41 00       	mov    edi,0x4189c0
  4005e3:	e8 38 ff ff ff       	call   400520 <perror@plt>
  4005e8:	e9 04 1a 00 00       	jmp    401ff1 <tcp_init_communication+0x171>
  4005ed:	bf 80 8b 41 00       	mov    edi,0x418b80
  4005f2:	e8 29 ff ff ff       	call   400520 <perror@plt>
  4005f7:	e9 f5 19 00 00       	jmp    401ff1 <tcp_init_communication+0x171>

00000000004005fc <ipc_init_communication.cold>:
  4005fc:	bf 28 8f 41 00       	mov    edi,0x418f28
  400601:	e8 1a ff ff ff       	call   400520 <perror@plt>
  400606:	8b 3d d4 e1 01 00    	mov    edi,DWORD PTR [rip+0x1e1d4]        # 41e7e0 <listening_socket>
  40060c:	83 ff ff             	cmp    edi,0xffffffff
  40060f:	74 05                	je     400616 <ipc_init_communication.cold+0x1a>
  400611:	e8 4a fe ff ff       	call   400460 <close@plt>
  400616:	bf 8f 8f 41 00       	mov    edi,0x418f8f
  40061b:	e8 90 fd ff ff       	call   4003b0 <unlink@plt>
  400620:	b8 01 00 00 00       	mov    eax,0x1
  400625:	e9 5e 1d 00 00       	jmp    402388 <ipc_init_communication+0xd8>
  40062a:	bf 10 90 41 00       	mov    edi,0x419010
  40062f:	e8 ec fe ff ff       	call   400520 <perror@plt>
  400634:	eb d0                	jmp    400606 <ipc_init_communication.cold+0xa>
  400636:	bf a8 8f 41 00       	mov    edi,0x418fa8
  40063b:	e8 e0 fe ff ff       	call   400520 <perror@plt>
  400640:	eb c4                	jmp    400606 <ipc_init_communication.cold+0xa>

0000000000400642 <bigint_create_from_u32.constprop.1.cold>:
  400642:	bf d8 91 41 00       	mov    edi,0x4191d8
  400647:	e8 d4 fe ff ff       	call   400520 <perror@plt>
  40064c:	bf 01 00 00 00       	mov    edi,0x1
  400651:	e8 ea fe ff ff       	call   400540 <exit@plt>

0000000000400656 <bigint_create_from_u32.constprop.2.cold>:
  400656:	bf d8 91 41 00       	mov    edi,0x4191d8
  40065b:	e8 c0 fe ff ff       	call   400520 <perror@plt>
  400660:	bf 01 00 00 00       	mov    edi,0x1
  400665:	e8 d6 fe ff ff       	call   400540 <exit@plt>

000000000040066a <get_bigint_from_dat.constprop.0.cold>:
  40066a:	bf d8 91 41 00       	mov    edi,0x4191d8
  40066f:	e8 ac fe ff ff       	call   400520 <perror@plt>
  400674:	bf 01 00 00 00       	mov    edi,0x1
  400679:	e8 c2 fe ff ff       	call   400540 <exit@plt>

000000000040067e <bigint_create_from_u32.cold>:
  40067e:	bf d8 91 41 00       	mov    edi,0x4191d8
  400683:	e8 98 fe ff ff       	call   400520 <perror@plt>
  400688:	bf 01 00 00 00       	mov    edi,0x1
  40068d:	e8 ae fe ff ff       	call   400540 <exit@plt>

0000000000400692 <check_pubkey_form.cold>:
  400692:	bf d8 91 41 00       	mov    edi,0x4191d8
  400697:	e8 84 fe ff ff       	call   400520 <perror@plt>
  40069c:	bf 01 00 00 00       	mov    edi,0x1
  4006a1:	e8 9a fe ff ff       	call   400540 <exit@plt>

00000000004006a6 <process_msg_00.cold>:
  4006a6:	bf d8 91 41 00       	mov    edi,0x4191d8
  4006ab:	e8 70 fe ff ff       	call   400520 <perror@plt>
  4006b0:	bf 01 00 00 00       	mov    edi,0x1
  4006b5:	e8 86 fe ff ff       	call   400540 <exit@plt>

00000000004006ba <process_msg_01.cold>:
  4006ba:	bf d8 91 41 00       	mov    edi,0x4191d8
  4006bf:	e8 5c fe ff ff       	call   400520 <perror@plt>
  4006c4:	bf 01 00 00 00       	mov    edi,0x1
  4006c9:	e8 72 fe ff ff       	call   400540 <exit@plt>

00000000004006ce <process_msg_10.cold>:
  4006ce:	bf d8 91 41 00       	mov    edi,0x4191d8
  4006d3:	e8 48 fe ff ff       	call   400520 <perror@plt>
  4006d8:	bf 01 00 00 00       	mov    edi,0x1
  4006dd:	e8 5e fe ff ff       	call   400540 <exit@plt>

00000000004006e2 <process_msg_20.cold>:
  4006e2:	bf d8 91 41 00       	mov    edi,0x4191d8
  4006e7:	e8 34 fe ff ff       	call   400520 <perror@plt>
  4006ec:	bf 01 00 00 00       	mov    edi,0x1
  4006f1:	e8 4a fe ff ff       	call   400540 <exit@plt>

00000000004006f6 <self_init.cold>:
  4006f6:	bf 00 a5 41 00       	mov    edi,0x41a500
  4006fb:	e8 20 fe ff ff       	call   400520 <perror@plt>
  400700:	bf 01 00 00 00       	mov    edi,0x1
  400705:	e8 36 fe ff ff       	call   400540 <exit@plt>
  40070a:	bf f0 a5 41 00       	mov    edi,0x41a5f0
  40070f:	bb 01 00 00 00       	mov    ebx,0x1
  400714:	e8 07 fe ff ff       	call   400520 <perror@plt>
  400719:	e9 91 71 01 00       	jmp    4178af <self_init+0x35f>
  40071e:	bf d8 91 41 00       	mov    edi,0x4191d8
  400723:	e8 f8 fd ff ff       	call   400520 <perror@plt>
  400728:	bf 01 00 00 00       	mov    edi,0x1
  40072d:	e8 0e fe ff ff       	call   400540 <exit@plt>
  400732:	66 2e 0f 1f 84 00 00 	cs nop WORD PTR [rax+rax*1+0x0]
  400739:	00 00 00 
  40073c:	0f 1f 40 00          	nop    DWORD PTR [rax+0x0]

0000000000400740 <main>:
  400740:	41 54                	push   r12
  400742:	53                   	push   rbx
  400743:	48 83 ec 18          	sub    rsp,0x18
  400747:	83 ff 02             	cmp    edi,0x2
  40074a:	74 14                	je     400760 <main+0x20>
  40074c:	bf a8 a8 41 00       	mov    edi,0x41a8a8
  400751:	e8 7a fc ff ff       	call   4003d0 <puts@plt>
  400756:	bf 01 00 00 00       	mov    edi,0x1
  40075b:	e8 e0 fd ff ff       	call   400540 <exit@plt>
  400760:	48 8b 7e 08          	mov    rdi,QWORD PTR [rsi+0x8]
  400764:	ba 0a 00 00 00       	mov    edx,0xa
  400769:	31 f6                	xor    esi,esi
  40076b:	e8 40 fd ff ff       	call   4004b0 <__isoc23_strtol@plt>
  400770:	83 f8 01             	cmp    eax,0x1
  400773:	74 65                	je     4007da <main+0x9a>
  400775:	85 c0                	test   eax,eax
  400777:	75 4d                	jne    4007c6 <main+0x86>
  400779:	be 80 1e 40 00       	mov    esi,0x401e80
  40077e:	b9 90 23 40 00       	mov    ecx,0x402390
  400783:	ba 10 22 40 00       	mov    edx,0x402210
  400788:	b8 10 20 40 00       	mov    eax,0x402010
  40078d:	48 89 35 54 fd 02 00 	mov    QWORD PTR [rip+0x2fd54],rsi        # 4304e8 <init_communication>
  400794:	48 89 0d 45 fd 02 00 	mov    QWORD PTR [rip+0x2fd45],rcx        # 4304e0 <transmit_payload>
  40079b:	48 89 15 36 fd 02 00 	mov    QWORD PTR [rip+0x2fd36],rdx        # 4304d8 <receive_payload>
  4007a2:	48 89 05 27 fd 02 00 	mov    QWORD PTR [rip+0x2fd27],rax        # 4304d0 <onboard_new_client>
  4007a9:	e8 a2 6d 01 00       	call   417550 <self_init>
  4007ae:	84 c0                	test   al,al
  4007b0:	74 3e                	je     4007f0 <main+0xb0>
  4007b2:	bf 28 a9 41 00       	mov    edi,0x41a928
  4007b7:	e8 14 fc ff ff       	call   4003d0 <puts@plt>
  4007bc:	bf 01 00 00 00       	mov    edi,0x1
  4007c1:	e8 7a fd ff ff       	call   400540 <exit@plt>
  4007c6:	bf e8 a8 41 00       	mov    edi,0x41a8e8
  4007cb:	e8 00 fc ff ff       	call   4003d0 <puts@plt>
  4007d0:	bf 01 00 00 00       	mov    edi,0x1
  4007d5:	e8 66 fd ff ff       	call   400540 <exit@plt>
  4007da:	be b0 22 40 00       	mov    esi,0x4022b0
  4007df:	b9 c0 21 40 00       	mov    ecx,0x4021c0
  4007e4:	ba f0 23 40 00       	mov    edx,0x4023f0
  4007e9:	b8 00 21 40 00       	mov    eax,0x402100
  4007ee:	eb 9d                	jmp    40078d <main+0x4d>
  4007f0:	bf 60 a9 41 00       	mov    edi,0x41a960
  4007f5:	bb 01 00 00 00       	mov    ebx,0x1
  4007fa:	e8 d1 fb ff ff       	call   4003d0 <puts@plt>
  4007ff:	48 c1 e3 3f          	shl    rbx,0x3f
  400803:	eb 14                	jmp    400819 <main+0xd9>
  400805:	0f 1f 00             	nop    DWORD PTR [rax]
  400808:	bf c8 a9 41 00       	mov    edi,0x41a9c8
  40080d:	e8 be fb ff ff       	call   4003d0 <puts@plt>
  400812:	c6 05 a7 fc 02 00 00 	mov    BYTE PTR [rip+0x2fca7],0x0        # 4304c0 <login_not_finished>
  400819:	48 8b 35 18 d9 01 00 	mov    rsi,QWORD PTR [rip+0x1d918]        # 41e138 <curr_free_user_ix>
  400820:	bf 98 a9 41 00       	mov    edi,0x41a998
  400825:	31 c0                	xor    eax,eax
  400827:	e8 04 fc ff ff       	call   400430 <printf@plt>
  40082c:	ff 15 9e fc 02 00    	call   QWORD PTR [rip+0x2fc9e]        # 4304d0 <onboard_new_client>
  400832:	c6 05 87 fc 02 00 01 	mov    BYTE PTR [rip+0x2fc87],0x1        # 4304c0 <login_not_finished>
  400839:	84 c0                	test   al,al
  40083b:	75 cb                	jne    400808 <main+0xc8>
  40083d:	48 8b 05 f4 d8 01 00 	mov    rax,QWORD PTR [rip+0x1d8f4]        # 41e138 <curr_free_user_ix>
  400844:	bf 40 04 43 00       	mov    edi,0x430440
  400849:	48 89 44 24 08       	mov    QWORD PTR [rsp+0x8],rax
  40084e:	e8 2d fd ff ff       	call   400580 <pthread_mutex_lock@plt>
  400853:	48 8b 05 de d8 01 00 	mov    rax,QWORD PTR [rip+0x1d8de]        # 41e138 <curr_free_user_ix>
  40085a:	31 f6                	xor    esi,esi
  40085c:	48 8d 4c 24 08       	lea    rcx,[rsp+0x8]
  400861:	ba 90 7d 41 00       	mov    edx,0x417d90
  400866:	48 8d 3c c5 40 e8 41 	lea    rdi,[rax*8+0x41e840]
  40086d:	00 
  40086e:	e8 8d fc ff ff       	call   400500 <pthread_create@plt>
  400873:	48 8b 05 be d8 01 00 	mov    rax,QWORD PTR [rip+0x1d8be]        # 41e138 <curr_free_user_ix>
  40087a:	48 8b 3c c5 40 e8 41 	mov    rdi,QWORD PTR [rax*8+0x41e840]
  400881:	00 
  400882:	e8 49 fc ff ff       	call   4004d0 <pthread_detach@plt>
  400887:	48 8b 05 aa d8 01 00 	mov    rax,QWORD PTR [rip+0x1d8aa]        # 41e138 <curr_free_user_ix>
  40088e:	48 83 c0 01          	add    rax,0x1
  400892:	48 83 f8 3f          	cmp    rax,0x3f
  400896:	48 89 05 9b d8 01 00 	mov    QWORD PTR [rip+0x1d89b],rax        # 41e138 <curr_free_user_ix>
  40089d:	77 48                	ja     4008e7 <main+0x1a7>
  40089f:	48 8b 35 12 fc 02 00 	mov    rsi,QWORD PTR [rip+0x2fc12]        # 4304b8 <users_status_bitmask>
  4008a6:	31 c9                	xor    ecx,ecx
  4008a8:	eb 28                	jmp    4008d2 <main+0x192>
  4008aa:	66 66 2e 0f 1f 84 00 	data16 cs nop WORD PTR [rax+rax*1+0x0]
  4008b1:	00 00 00 00 
  4008b5:	66 66 2e 0f 1f 84 00 	data16 cs nop WORD PTR [rax+rax*1+0x0]
  4008bc:	00 00 00 00 
  4008c0:	48 83 c0 01          	add    rax,0x1
  4008c4:	b9 01 00 00 00       	mov    ecx,0x1
  4008c9:	48 83 f8 40          	cmp    rax,0x40
  4008cd:	74 27                	je     4008f6 <main+0x1b6>
  4008cf:	49 89 c4             	mov    r12,rax
  4008d2:	c4 e2 fb f7 d3       	shrx   rdx,rbx,rax
  4008d7:	48 85 f2             	test   rdx,rsi
  4008da:	75 e4                	jne    4008c0 <main+0x180>
  4008dc:	84 c9                	test   cl,cl
  4008de:	74 07                	je     4008e7 <main+0x1a7>
  4008e0:	4c 89 25 51 d8 01 00 	mov    QWORD PTR [rip+0x1d851],r12        # 41e138 <curr_free_user_ix>
  4008e7:	bf 40 04 43 00       	mov    edi,0x430440
  4008ec:	e8 cf fb ff ff       	call   4004c0 <pthread_mutex_unlock@plt>
  4008f1:	e9 23 ff ff ff       	jmp    400819 <main+0xd9>
  4008f6:	48 c7 05 37 d8 01 00 	mov    QWORD PTR [rip+0x1d837],0x40        # 41e138 <curr_free_user_ix>
  4008fd:	40 00 00 00 
  400901:	eb e4                	jmp    4008e7 <main+0x1a7>
  400903:	66 2e 0f 1f 84 00 00 	cs nop WORD PTR [rax+rax*1+0x0]
  40090a:	00 00 00 
  40090d:	0f 1f 00             	nop    DWORD PTR [rax]

0000000000400910 <_start>:
  400910:	f3 0f 1e fa          	endbr64
  400914:	31 ed                	xor    ebp,ebp
  400916:	49 89 d1             	mov    r9,rdx
  400919:	5e                   	pop    rsi
  40091a:	48 89 e2             	mov    rdx,rsp
  40091d:	48 83 e4 f0          	and    rsp,0xfffffffffffffff0
  400921:	50                   	push   rax
  400922:	54                   	push   rsp
  400923:	45 31 c0             	xor    r8d,r8d
  400926:	31 c9                	xor    ecx,ecx
  400928:	48 c7 c7 40 07 40 00 	mov    rdi,0x400740
  40092f:	ff 15 a3 d6 01 00    	call   QWORD PTR [rip+0x1d6a3]        # 41dfd8 <__libc_start_main@GLIBC_2.34>
  400935:	f4                   	hlt
  400936:	66 2e 0f 1f 84 00 00 	cs nop WORD PTR [rax+rax*1+0x0]
  40093d:	00 00 00 

0000000000400940 <_dl_relocate_static_pie>:
  400940:	f3 0f 1e fa          	endbr64
  400944:	c3                   	ret
  400945:	66 2e 0f 1f 84 00 00 	cs nop WORD PTR [rax+rax*1+0x0]
  40094c:	00 00 00 
  40094f:	90                   	nop

0000000000400950 <deregister_tm_clones>:
  400950:	b8 40 e1 41 00       	mov    eax,0x41e140
  400955:	48 3d 40 e1 41 00    	cmp    rax,0x41e140
  40095b:	74 13                	je     400970 <deregister_tm_clones+0x20>
  40095d:	b8 00 00 00 00       	mov    eax,0x0
  400962:	48 85 c0             	test   rax,rax
  400965:	74 09                	je     400970 <deregister_tm_clones+0x20>
  400967:	bf 40 e1 41 00       	mov    edi,0x41e140
  40096c:	ff e0                	jmp    rax
  40096e:	66 90                	xchg   ax,ax
  400970:	c3                   	ret
  400971:	0f 1f 40 00          	nop    DWORD PTR [rax+0x0]
  400975:	66 66 2e 0f 1f 84 00 	data16 cs nop WORD PTR [rax+rax*1+0x0]
  40097c:	00 00 00 00 

0000000000400980 <register_tm_clones>:
  400980:	be 40 e1 41 00       	mov    esi,0x41e140
  400985:	48 81 ee 40 e1 41 00 	sub    rsi,0x41e140
  40098c:	48 89 f0             	mov    rax,rsi
  40098f:	48 c1 ee 3f          	shr    rsi,0x3f
  400993:	48 c1 f8 03          	sar    rax,0x3
  400997:	48 01 c6             	add    rsi,rax
  40099a:	48 d1 fe             	sar    rsi,1
  40099d:	74 11                	je     4009b0 <register_tm_clones+0x30>
  40099f:	b8 00 00 00 00       	mov    eax,0x0
  4009a4:	48 85 c0             	test   rax,rax
  4009a7:	74 07                	je     4009b0 <register_tm_clones+0x30>
  4009a9:	bf 40 e1 41 00       	mov    edi,0x41e140
  4009ae:	ff e0                	jmp    rax
  4009b0:	c3                   	ret
  4009b1:	0f 1f 40 00          	nop    DWORD PTR [rax+0x0]
  4009b5:	66 66 2e 0f 1f 84 00 	data16 cs nop WORD PTR [rax+rax*1+0x0]
  4009bc:	00 00 00 00 

00000000004009c0 <__do_global_dtors_aux>:
  4009c0:	f3 0f 1e fa          	endbr64
  4009c4:	80 3d 75 d7 01 00 00 	cmp    BYTE PTR [rip+0x1d775],0x0        # 41e140 <__TMC_END__>
  4009cb:	75 13                	jne    4009e0 <__do_global_dtors_aux+0x20>
  4009cd:	55                   	push   rbp
  4009ce:	48 89 e5             	mov    rbp,rsp
  4009d1:	e8 7a ff ff ff       	call   400950 <deregister_tm_clones>
  4009d6:	c6 05 63 d7 01 00 01 	mov    BYTE PTR [rip+0x1d763],0x1        # 41e140 <__TMC_END__>
  4009dd:	5d                   	pop    rbp
  4009de:	c3                   	ret
  4009df:	90                   	nop
  4009e0:	c3                   	ret
  4009e1:	0f 1f 40 00          	nop    DWORD PTR [rax+0x0]
  4009e5:	66 66 2e 0f 1f 84 00 	data16 cs nop WORD PTR [rax+rax*1+0x0]
  4009ec:	00 00 00 00 

00000000004009f0 <frame_dummy>:
  4009f0:	f3 0f 1e fa          	endbr64
  4009f4:	eb 8a                	jmp    400980 <register_tm_clones>
  4009f6:	66 2e 0f 1f 84 00 00 	cs nop WORD PTR [rax+rax*1+0x0]
  4009fd:	00 00 00 

0000000000400a00 <erase_mem_secure>:
  400a00:	55                   	push   rbp
  400a01:	48 89 e5             	mov    rbp,rsp
  400a04:	48 83 e4 e0          	and    rsp,0xffffffffffffffe0
  400a08:	48 83 ec 08          	sub    rsp,0x8
  400a0c:	48 89 7c 24 a0       	mov    QWORD PTR [rsp-0x60],rdi
  400a11:	48 89 74 24 98       	mov    QWORD PTR [rsp-0x68],rsi
  400a16:	c5 f9 ef c0          	vpxor  xmm0,xmm0,xmm0
  400a1a:	90                   	nop
  400a1b:	c5 fd 7f 44 24 c8    	vmovdqa YMMWORD PTR [rsp-0x38],ymm0
  400a21:	48 c7 04 24 00 00 00 	mov    QWORD PTR [rsp],0x0
  400a28:	00 
  400a29:	eb 32                	jmp    400a5d <erase_mem_secure+0x5d>
  400a2b:	48 8b 54 24 a0       	mov    rdx,QWORD PTR [rsp-0x60]
  400a30:	48 8b 04 24          	mov    rax,QWORD PTR [rsp]
  400a34:	48 01 d0             	add    rax,rdx
  400a37:	48 89 44 24 f8       	mov    QWORD PTR [rsp-0x8],rax
  400a3c:	c5 fd 6f 44 24 c8    	vmovdqa ymm0,YMMWORD PTR [rsp-0x38]
  400a42:	c5 fd 7f 44 24 a8    	vmovdqa YMMWORD PTR [rsp-0x58],ymm0
  400a48:	c5 fd 6f 44 24 a8    	vmovdqa ymm0,YMMWORD PTR [rsp-0x58]
  400a4e:	48 8b 44 24 f8       	mov    rax,QWORD PTR [rsp-0x8]
  400a53:	c5 fe 7f 00          	vmovdqu YMMWORD PTR [rax],ymm0
  400a57:	90                   	nop
  400a58:	48 83 04 24 20       	add    QWORD PTR [rsp],0x20
  400a5d:	48 8b 04 24          	mov    rax,QWORD PTR [rsp]
  400a61:	48 83 c0 20          	add    rax,0x20
  400a65:	48 39 44 24 98       	cmp    QWORD PTR [rsp-0x68],rax
  400a6a:	73 bf                	jae    400a2b <erase_mem_secure+0x2b>
  400a6c:	eb 17                	jmp    400a85 <erase_mem_secure+0x85>
  400a6e:	48 8b 04 24          	mov    rax,QWORD PTR [rsp]
  400a72:	48 8d 50 01          	lea    rdx,[rax+0x1]
  400a76:	48 89 14 24          	mov    QWORD PTR [rsp],rdx
  400a7a:	48 8b 54 24 a0       	mov    rdx,QWORD PTR [rsp-0x60]
  400a7f:	48 01 d0             	add    rax,rdx
  400a82:	c6 00 00             	mov    BYTE PTR [rax],0x0
  400a85:	48 8b 04 24          	mov    rax,QWORD PTR [rsp]
  400a89:	48 3b 44 24 98       	cmp    rax,QWORD PTR [rsp-0x68]
  400a8e:	72 de                	jb     400a6e <erase_mem_secure+0x6e>
  400a90:	48 8b 44 24 a0       	mov    rax,QWORD PTR [rsp-0x60]
  400a95:	90                   	nop
  400a96:	c5 f8 77             	vzeroupper
  400a99:	c9                   	leave
  400a9a:	c3                   	ret
  400a9b:	0f 1f 44 00 00       	nop    DWORD PTR [rax+rax*1+0x0]

0000000000400aa0 <argon2_gb>:
  400aa0:	48 8b 07             	mov    rax,QWORD PTR [rdi]
  400aa3:	4c 8b 0e             	mov    r9,QWORD PTR [rsi]
  400aa6:	41 89 c0             	mov    r8d,eax
  400aa9:	45 89 ca             	mov    r10d,r9d
  400aac:	4c 01 c8             	add    rax,r9
  400aaf:	4d 0f af c2          	imul   r8,r10
  400ab3:	4a 8d 04 40          	lea    rax,[rax+r8*2]
  400ab7:	48 89 07             	mov    QWORD PTR [rdi],rax
  400aba:	48 33 01             	xor    rax,QWORD PTR [rcx]
  400abd:	c4 e3 fb f0 c0 20    	rorx   rax,rax,0x20
  400ac3:	48 89 01             	mov    QWORD PTR [rcx],rax
  400ac6:	4c 8b 0a             	mov    r9,QWORD PTR [rdx]
  400ac9:	41 89 c2             	mov    r10d,eax
  400acc:	45 89 c8             	mov    r8d,r9d
  400acf:	4c 01 c8             	add    rax,r9
  400ad2:	4d 0f af c2          	imul   r8,r10
  400ad6:	4a 8d 04 40          	lea    rax,[rax+r8*2]
  400ada:	48 89 02             	mov    QWORD PTR [rdx],rax
  400add:	48 33 06             	xor    rax,QWORD PTR [rsi]
  400ae0:	c4 e3 fb f0 c0 18    	rorx   rax,rax,0x18
  400ae6:	48 89 06             	mov    QWORD PTR [rsi],rax
  400ae9:	4c 8b 0f             	mov    r9,QWORD PTR [rdi]
  400aec:	41 89 c2             	mov    r10d,eax
  400aef:	45 89 c8             	mov    r8d,r9d
  400af2:	4c 01 c8             	add    rax,r9
  400af5:	4d 0f af c2          	imul   r8,r10
  400af9:	4a 8d 04 40          	lea    rax,[rax+r8*2]
  400afd:	48 89 07             	mov    QWORD PTR [rdi],rax
  400b00:	48 33 01             	xor    rax,QWORD PTR [rcx]
  400b03:	c4 e3 fb f0 c0 10    	rorx   rax,rax,0x10
  400b09:	48 89 01             	mov    QWORD PTR [rcx],rax
  400b0c:	48 8b 3a             	mov    rdi,QWORD PTR [rdx]
  400b0f:	41 89 c0             	mov    r8d,eax
  400b12:	89 f9                	mov    ecx,edi
  400b14:	48 01 f8             	add    rax,rdi
  400b17:	49 0f af c8          	imul   rcx,r8
  400b1b:	48 8d 04 48          	lea    rax,[rax+rcx*2]
  400b1f:	48 89 02             	mov    QWORD PTR [rdx],rax
  400b22:	48 33 06             	xor    rax,QWORD PTR [rsi]
  400b25:	c4 e3 fb f0 c0 3f    	rorx   rax,rax,0x3f
  400b2b:	48 89 06             	mov    QWORD PTR [rsi],rax
  400b2e:	c3                   	ret
  400b2f:	90                   	nop

0000000000400b30 <argon2_p>:
  400b30:	55                   	push   rbp
  400b31:	c4 e1 f9 6e e7       	vmovq  xmm4,rdi
  400b36:	c4 e2 7d 59 c4       	vpbroadcastq ymm0,xmm4
  400b3b:	48 89 e5             	mov    rbp,rsp
  400b3e:	41 57                	push   r15
  400b40:	41 56                	push   r14
  400b42:	41 55                	push   r13
  400b44:	41 54                	push   r12
  400b46:	53                   	push   rbx
  400b47:	48 83 e4 e0          	and    rsp,0xffffffffffffffe0
  400b4b:	48 83 ec 60          	sub    rsp,0x60
  400b4f:	c5 fd d4 0d e9 a4 01 	vpaddq ymm1,ymm0,YMMWORD PTR [rip+0x1a4e9]        # 41b040 <BLAKE2B_IV+0x40>
  400b56:	00 
  400b57:	c5 fd d4 15 01 a5 01 	vpaddq ymm2,ymm0,YMMWORD PTR [rip+0x1a501]        # 41b060 <BLAKE2B_IV+0x60>
  400b5e:	00 
  400b5f:	c5 fd d4 1d 19 a5 01 	vpaddq ymm3,ymm0,YMMWORD PTR [rip+0x1a519]        # 41b080 <BLAKE2B_IV+0x80>
  400b66:	00 
  400b67:	c5 fd d4 05 31 a5 01 	vpaddq ymm0,ymm0,YMMWORD PTR [rip+0x1a531]        # 41b0a0 <BLAKE2B_IV+0xa0>
  400b6e:	00 
  400b6f:	c4 e1 f9 7e d6       	vmovq  rsi,xmm2
  400b74:	c4 e1 f9 7e cf       	vmovq  rdi,xmm1
  400b79:	c5 f9 d6 4c 24 18    	vmovq  QWORD PTR [rsp+0x18],xmm1
  400b7f:	c5 f9 6f ea          	vmovdqa xmm5,xmm2
  400b83:	c4 e1 f9 7e c1       	vmovq  rcx,xmm0
  400b88:	c4 e1 f9 7e da       	vmovq  rdx,xmm3
  400b8d:	c5 f9 d6 44 24 10    	vmovq  QWORD PTR [rsp+0x10],xmm0
  400b93:	c5 f9 6f f3          	vmovdqa xmm6,xmm3
  400b97:	e8 04 ff ff ff       	call   400aa0 <argon2_gb>
  400b9c:	c4 e3 f9 16 44 24 48 	vpextrq QWORD PTR [rsp+0x48],xmm0,0x1
  400ba3:	01 
  400ba4:	48 8b 4c 24 48       	mov    rcx,QWORD PTR [rsp+0x48]
  400ba9:	c4 e3 f9 16 5c 24 50 	vpextrq QWORD PTR [rsp+0x50],xmm3,0x1
  400bb0:	01 
  400bb1:	c4 e3 f9 16 4c 24 58 	vpextrq QWORD PTR [rsp+0x58],xmm1,0x1
  400bb8:	01 
  400bb9:	48 8b 54 24 50       	mov    rdx,QWORD PTR [rsp+0x50]
  400bbe:	48 8b 7c 24 58       	mov    rdi,QWORD PTR [rsp+0x58]
  400bc3:	c4 e3 7d 39 db 01    	vextracti128 xmm3,ymm3,0x1
  400bc9:	c4 e3 7d 39 c0 01    	vextracti128 xmm0,ymm0,0x1
  400bcf:	c4 e3 7d 39 c9 01    	vextracti128 xmm1,ymm1,0x1
  400bd5:	c4 e3 f9 16 d6 01    	vpextrq rsi,xmm2,0x1
  400bdb:	e8 c0 fe ff ff       	call   400aa0 <argon2_gb>
  400be0:	c4 e3 7d 39 d2 01    	vextracti128 xmm2,ymm2,0x1
  400be6:	c4 e1 f9 7e c1       	vmovq  rcx,xmm0
  400beb:	c4 e1 f9 7e da       	vmovq  rdx,xmm3
  400bf0:	c4 e1 f9 7e d6       	vmovq  rsi,xmm2
  400bf5:	c4 e1 f9 7e cf       	vmovq  rdi,xmm1
  400bfa:	c5 f9 d6 5c 24 20    	vmovq  QWORD PTR [rsp+0x20],xmm3
  400c00:	c5 f9 d6 54 24 28    	vmovq  QWORD PTR [rsp+0x28],xmm2
  400c06:	e8 95 fe ff ff       	call   400aa0 <argon2_gb>
  400c0b:	c4 e3 f9 16 54 24 40 	vpextrq QWORD PTR [rsp+0x40],xmm2,0x1
  400c12:	01 
  400c13:	48 8b 74 24 40       	mov    rsi,QWORD PTR [rsp+0x40]
  400c18:	c4 e3 f9 16 4c 24 38 	vpextrq QWORD PTR [rsp+0x38],xmm1,0x1
  400c1f:	01 
  400c20:	48 8b 7c 24 38       	mov    rdi,QWORD PTR [rsp+0x38]
  400c25:	c4 e3 f9 16 c1 01    	vpextrq rcx,xmm0,0x1
  400c2b:	c4 e3 f9 16 da 01    	vpextrq rdx,xmm3,0x1
  400c31:	48 89 4c 24 30       	mov    QWORD PTR [rsp+0x30],rcx
  400c36:	e8 65 fe ff ff       	call   400aa0 <argon2_gb>
  400c3b:	48 8b 4c 24 30       	mov    rcx,QWORD PTR [rsp+0x30]
  400c40:	48 8b 54 24 20       	mov    rdx,QWORD PTR [rsp+0x20]
  400c45:	c4 e3 f9 16 ee 01    	vpextrq rsi,xmm5,0x1
  400c4b:	48 8b 7c 24 18       	mov    rdi,QWORD PTR [rsp+0x18]
  400c50:	e8 4b fe ff ff       	call   400aa0 <argon2_gb>
  400c55:	48 8b 4c 24 10       	mov    rcx,QWORD PTR [rsp+0x10]
  400c5a:	48 8b 74 24 28       	mov    rsi,QWORD PTR [rsp+0x28]
  400c5f:	c4 e3 f9 16 da 01    	vpextrq rdx,xmm3,0x1
  400c65:	48 8b 7c 24 58       	mov    rdi,QWORD PTR [rsp+0x58]
  400c6a:	e8 31 fe ff ff       	call   400aa0 <argon2_gb>
  400c6f:	48 8b 4c 24 48       	mov    rcx,QWORD PTR [rsp+0x48]
  400c74:	48 8b 74 24 40       	mov    rsi,QWORD PTR [rsp+0x40]
  400c79:	c4 e1 f9 7e f2       	vmovq  rdx,xmm6
  400c7e:	c4 e1 f9 7e cf       	vmovq  rdi,xmm1
  400c83:	e8 18 fe ff ff       	call   400aa0 <argon2_gb>
  400c88:	48 8b 54 24 50       	mov    rdx,QWORD PTR [rsp+0x50]
  400c8d:	48 8b 7c 24 38       	mov    rdi,QWORD PTR [rsp+0x38]
  400c92:	c4 e1 f9 7e c1       	vmovq  rcx,xmm0
  400c97:	c4 e1 f9 7e ee       	vmovq  rsi,xmm5
  400c9c:	c5 f8 77             	vzeroupper
  400c9f:	48 8d 65 d8          	lea    rsp,[rbp-0x28]
  400ca3:	5b                   	pop    rbx
  400ca4:	41 5c                	pop    r12
  400ca6:	41 5d                	pop    r13
  400ca8:	41 5e                	pop    r14
  400caa:	41 5f                	pop    r15
  400cac:	5d                   	pop    rbp
  400cad:	e9 ee fd ff ff       	jmp    400aa0 <argon2_gb>
  400cb2:	0f 1f 00             	nop    DWORD PTR [rax]
  400cb5:	66 66 2e 0f 1f 84 00 	data16 cs nop WORD PTR [rax+rax*1+0x0]
  400cbc:	00 00 00 00 

0000000000400cc0 <argon2_g>:
  400cc0:	55                   	push   rbp
  400cc1:	31 c0                	xor    eax,eax
  400cc3:	48 89 e5             	mov    rbp,rsp
  400cc6:	41 54                	push   r12
  400cc8:	53                   	push   rbx
  400cc9:	48 89 d3             	mov    rbx,rdx
  400ccc:	48 83 e4 e0          	and    rsp,0xffffffffffffffe0
  400cd0:	48 81 ec 00 10 00 00 	sub    rsp,0x1000
  400cd7:	66 0f 1f 84 00 00 00 	nop    WORD PTR [rax+rax*1+0x0]
  400cde:	00 00 
  400ce0:	c5 fe 6f 04 07       	vmovdqu ymm0,YMMWORD PTR [rdi+rax*1]
  400ce5:	c5 fd ef 04 06       	vpxor  ymm0,ymm0,YMMWORD PTR [rsi+rax*1]
  400cea:	c5 fd 7f 04 04       	vmovdqa YMMWORD PTR [rsp+rax*1],ymm0
  400cef:	48 83 c0 20          	add    rax,0x20
  400cf3:	48 3d 00 04 00 00    	cmp    rax,0x400
  400cf9:	75 e5                	jne    400ce0 <argon2_g+0x20>
  400cfb:	ba 00 04 00 00       	mov    edx,0x400
  400d00:	48 89 e6             	mov    rsi,rsp
  400d03:	c5 f8 77             	vzeroupper
  400d06:	48 8d bc 24 00 08 00 	lea    rdi,[rsp+0x800]
  400d0d:	00 
  400d0e:	e8 8d f7 ff ff       	call   4004a0 <memcpy@plt>
  400d13:	4c 8d a4 24 00 0c 00 	lea    r12,[rsp+0xc00]
  400d1a:	00 
  400d1b:	4c 8d 9c 24 00 08 00 	lea    r11,[rsp+0x800]
  400d22:	00 
  400d23:	0f 1f 44 00 00       	nop    DWORD PTR [rax+rax*1+0x0]
  400d28:	4c 89 df             	mov    rdi,r11
  400d2b:	49 83 eb 80          	sub    r11,0xffffffffffffff80
  400d2f:	e8 fc fd ff ff       	call   400b30 <argon2_p>
  400d34:	4d 39 e3             	cmp    r11,r12
  400d37:	75 ef                	jne    400d28 <argon2_g+0x68>
  400d39:	c5 f9 6f 84 24 00 08 	vmovdqa xmm0,XMMWORD PTR [rsp+0x800]
  400d40:	00 00 
  400d42:	c5 f9 7f 84 24 00 0c 	vmovdqa XMMWORD PTR [rsp+0xc00],xmm0
  400d49:	00 00 
  400d4b:	c5 f9 6f 84 24 10 08 	vmovdqa xmm0,XMMWORD PTR [rsp+0x810]
  400d52:	00 00 
  400d54:	c5 f9 7f 84 24 80 0c 	vmovdqa XMMWORD PTR [rsp+0xc80],xmm0
  400d5b:	00 00 
  400d5d:	c5 f9 6f 84 24 20 08 	vmovdqa xmm0,XMMWORD PTR [rsp+0x820]
  400d64:	00 00 
  400d66:	c5 f9 7f 84 24 00 0d 	vmovdqa XMMWORD PTR [rsp+0xd00],xmm0
  400d6d:	00 00 
  400d6f:	c5 f9 6f 84 24 30 08 	vmovdqa xmm0,XMMWORD PTR [rsp+0x830]
  400d76:	00 00 
  400d78:	c5 f9 7f 84 24 80 0d 	vmovdqa XMMWORD PTR [rsp+0xd80],xmm0
  400d7f:	00 00 
  400d81:	c5 f9 6f 84 24 40 08 	vmovdqa xmm0,XMMWORD PTR [rsp+0x840]
  400d88:	00 00 
  400d8a:	c5 f9 7f 84 24 00 0e 	vmovdqa XMMWORD PTR [rsp+0xe00],xmm0
  400d91:	00 00 
  400d93:	c5 f9 6f 84 24 50 08 	vmovdqa xmm0,XMMWORD PTR [rsp+0x850]
  400d9a:	00 00 
  400d9c:	c5 f9 7f 84 24 80 0e 	vmovdqa XMMWORD PTR [rsp+0xe80],xmm0
  400da3:	00 00 
  400da5:	c5 f9 6f 84 24 60 08 	vmovdqa xmm0,XMMWORD PTR [rsp+0x860]
  400dac:	00 00 
  400dae:	c5 f9 7f 84 24 00 0f 	vmovdqa XMMWORD PTR [rsp+0xf00],xmm0
  400db5:	00 00 
  400db7:	c5 f9 6f 84 24 70 08 	vmovdqa xmm0,XMMWORD PTR [rsp+0x870]
  400dbe:	00 00 
  400dc0:	c5 f9 7f 84 24 80 0f 	vmovdqa XMMWORD PTR [rsp+0xf80],xmm0
  400dc7:	00 00 
  400dc9:	c5 f9 6f 84 24 80 08 	vmovdqa xmm0,XMMWORD PTR [rsp+0x880]
  400dd0:	00 00 
  400dd2:	c5 f9 7f 84 24 10 0c 	vmovdqa XMMWORD PTR [rsp+0xc10],xmm0
  400dd9:	00 00 
  400ddb:	c5 f9 6f 84 24 90 08 	vmovdqa xmm0,XMMWORD PTR [rsp+0x890]
  400de2:	00 00 
  400de4:	c5 f9 7f 84 24 90 0c 	vmovdqa XMMWORD PTR [rsp+0xc90],xmm0
  400deb:	00 00 
  400ded:	c5 f9 6f 84 24 a0 08 	vmovdqa xmm0,XMMWORD PTR [rsp+0x8a0]
  400df4:	00 00 
  400df6:	c5 f9 7f 84 24 10 0d 	vmovdqa XMMWORD PTR [rsp+0xd10],xmm0
  400dfd:	00 00 
  400dff:	c5 f9 6f 84 24 b0 08 	vmovdqa xmm0,XMMWORD PTR [rsp+0x8b0]
  400e06:	00 00 
  400e08:	c5 f9 7f 84 24 90 0d 	vmovdqa XMMWORD PTR [rsp+0xd90],xmm0
  400e0f:	00 00 
  400e11:	c5 f9 6f 84 24 c0 08 	vmovdqa xmm0,XMMWORD PTR [rsp+0x8c0]
  400e18:	00 00 
  400e1a:	c5 f9 7f 84 24 10 0e 	vmovdqa XMMWORD PTR [rsp+0xe10],xmm0
  400e21:	00 00 
  400e23:	c5 f9 6f 84 24 d0 08 	vmovdqa xmm0,XMMWORD PTR [rsp+0x8d0]
  400e2a:	00 00 
  400e2c:	c5 f9 7f 84 24 90 0e 	vmovdqa XMMWORD PTR [rsp+0xe90],xmm0
  400e33:	00 00 
  400e35:	c5 f9 6f 84 24 e0 08 	vmovdqa xmm0,XMMWORD PTR [rsp+0x8e0]
  400e3c:	00 00 
  400e3e:	c5 f9 7f 84 24 10 0f 	vmovdqa XMMWORD PTR [rsp+0xf10],xmm0
  400e45:	00 00 
  400e47:	c5 f9 6f 84 24 f0 08 	vmovdqa xmm0,XMMWORD PTR [rsp+0x8f0]
  400e4e:	00 00 
  400e50:	c5 f9 7f 84 24 90 0f 	vmovdqa XMMWORD PTR [rsp+0xf90],xmm0
  400e57:	00 00 
  400e59:	c5 f9 6f 84 24 00 09 	vmovdqa xmm0,XMMWORD PTR [rsp+0x900]
  400e60:	00 00 
  400e62:	c5 f9 7f 84 24 20 0c 	vmovdqa XMMWORD PTR [rsp+0xc20],xmm0
  400e69:	00 00 
  400e6b:	c5 f9 6f 84 24 10 09 	vmovdqa xmm0,XMMWORD PTR [rsp+0x910]
  400e72:	00 00 
  400e74:	c5 f9 7f 84 24 a0 0c 	vmovdqa XMMWORD PTR [rsp+0xca0],xmm0
  400e7b:	00 00 
  400e7d:	c5 f9 6f 84 24 20 09 	vmovdqa xmm0,XMMWORD PTR [rsp+0x920]
  400e84:	00 00 
  400e86:	c5 f9 7f 84 24 20 0d 	vmovdqa XMMWORD PTR [rsp+0xd20],xmm0
  400e8d:	00 00 
  400e8f:	c5 f9 6f 84 24 30 09 	vmovdqa xmm0,XMMWORD PTR [rsp+0x930]
  400e96:	00 00 
  400e98:	c5 f9 7f 84 24 a0 0d 	vmovdqa XMMWORD PTR [rsp+0xda0],xmm0
  400e9f:	00 00 
  400ea1:	c5 f9 6f 84 24 40 09 	vmovdqa xmm0,XMMWORD PTR [rsp+0x940]
  400ea8:	00 00 
  400eaa:	c5 f9 7f 84 24 20 0e 	vmovdqa XMMWORD PTR [rsp+0xe20],xmm0
  400eb1:	00 00 
  400eb3:	c5 f9 6f 84 24 50 09 	vmovdqa xmm0,XMMWORD PTR [rsp+0x950]
  400eba:	00 00 
  400ebc:	c5 f9 7f 84 24 a0 0e 	vmovdqa XMMWORD PTR [rsp+0xea0],xmm0
  400ec3:	00 00 
  400ec5:	c5 f9 6f 84 24 60 09 	vmovdqa xmm0,XMMWORD PTR [rsp+0x960]
  400ecc:	00 00 
  400ece:	c5 f9 7f 84 24 20 0f 	vmovdqa XMMWORD PTR [rsp+0xf20],xmm0
  400ed5:	00 00 
  400ed7:	c5 f9 6f 84 24 70 09 	vmovdqa xmm0,XMMWORD PTR [rsp+0x970]
  400ede:	00 00 
  400ee0:	c5 f9 7f 84 24 a0 0f 	vmovdqa XMMWORD PTR [rsp+0xfa0],xmm0
  400ee7:	00 00 
  400ee9:	c5 f9 6f 84 24 80 09 	vmovdqa xmm0,XMMWORD PTR [rsp+0x980]
  400ef0:	00 00 
  400ef2:	c5 f9 7f 84 24 30 0c 	vmovdqa XMMWORD PTR [rsp+0xc30],xmm0
  400ef9:	00 00 
  400efb:	c5 f9 6f 84 24 90 09 	vmovdqa xmm0,XMMWORD PTR [rsp+0x990]
  400f02:	00 00 
  400f04:	c5 f9 7f 84 24 b0 0c 	vmovdqa XMMWORD PTR [rsp+0xcb0],xmm0
  400f0b:	00 00 
  400f0d:	c5 f9 6f 84 24 a0 09 	vmovdqa xmm0,XMMWORD PTR [rsp+0x9a0]
  400f14:	00 00 
  400f16:	c5 f9 7f 84 24 30 0d 	vmovdqa XMMWORD PTR [rsp+0xd30],xmm0
  400f1d:	00 00 
  400f1f:	c5 f9 6f 84 24 b0 09 	vmovdqa xmm0,XMMWORD PTR [rsp+0x9b0]
  400f26:	00 00 
  400f28:	c5 f9 7f 84 24 b0 0d 	vmovdqa XMMWORD PTR [rsp+0xdb0],xmm0
  400f2f:	00 00 
  400f31:	c5 f9 6f 84 24 c0 09 	vmovdqa xmm0,XMMWORD PTR [rsp+0x9c0]
  400f38:	00 00 
  400f3a:	c5 f9 7f 84 24 30 0e 	vmovdqa XMMWORD PTR [rsp+0xe30],xmm0
  400f41:	00 00 
  400f43:	c5 f9 6f 84 24 d0 09 	vmovdqa xmm0,XMMWORD PTR [rsp+0x9d0]
  400f4a:	00 00 
  400f4c:	c5 f9 7f 84 24 b0 0e 	vmovdqa XMMWORD PTR [rsp+0xeb0],xmm0
  400f53:	00 00 
  400f55:	c5 f9 6f 84 24 e0 09 	vmovdqa xmm0,XMMWORD PTR [rsp+0x9e0]
  400f5c:	00 00 
  400f5e:	c5 f9 7f 84 24 30 0f 	vmovdqa XMMWORD PTR [rsp+0xf30],xmm0
  400f65:	00 00 
  400f67:	c5 f9 6f 84 24 f0 09 	vmovdqa xmm0,XMMWORD PTR [rsp+0x9f0]
  400f6e:	00 00 
  400f70:	c5 f9 7f 84 24 b0 0f 	vmovdqa XMMWORD PTR [rsp+0xfb0],xmm0
  400f77:	00 00 
  400f79:	c5 f9 6f 84 24 00 0a 	vmovdqa xmm0,XMMWORD PTR [rsp+0xa00]
  400f80:	00 00 
  400f82:	c5 f9 7f 84 24 40 0c 	vmovdqa XMMWORD PTR [rsp+0xc40],xmm0
  400f89:	00 00 
  400f8b:	c5 f9 6f 84 24 10 0a 	vmovdqa xmm0,XMMWORD PTR [rsp+0xa10]
  400f92:	00 00 
  400f94:	c5 f9 7f 84 24 c0 0c 	vmovdqa XMMWORD PTR [rsp+0xcc0],xmm0
  400f9b:	00 00 
  400f9d:	c5 f9 6f 84 24 20 0a 	vmovdqa xmm0,XMMWORD PTR [rsp+0xa20]
  400fa4:	00 00 
  400fa6:	c5 f9 7f 84 24 40 0d 	vmovdqa XMMWORD PTR [rsp+0xd40],xmm0
  400fad:	00 00 
  400faf:	c5 f9 6f 84 24 30 0a 	vmovdqa xmm0,XMMWORD PTR [rsp+0xa30]
  400fb6:	00 00 
  400fb8:	c5 f9 7f 84 24 c0 0d 	vmovdqa XMMWORD PTR [rsp+0xdc0],xmm0
  400fbf:	00 00 
  400fc1:	c5 f9 6f 84 24 40 0a 	vmovdqa xmm0,XMMWORD PTR [rsp+0xa40]
  400fc8:	00 00 
  400fca:	c5 f9 7f 84 24 40 0e 	vmovdqa XMMWORD PTR [rsp+0xe40],xmm0
  400fd1:	00 00 
  400fd3:	c5 f9 6f 84 24 50 0a 	vmovdqa xmm0,XMMWORD PTR [rsp+0xa50]
  400fda:	00 00 
  400fdc:	c5 f9 7f 84 24 c0 0e 	vmovdqa XMMWORD PTR [rsp+0xec0],xmm0
  400fe3:	00 00 
  400fe5:	c5 f9 6f 84 24 60 0a 	vmovdqa xmm0,XMMWORD PTR [rsp+0xa60]
  400fec:	00 00 
  400fee:	c5 f9 7f 84 24 40 0f 	vmovdqa XMMWORD PTR [rsp+0xf40],xmm0
  400ff5:	00 00 
  400ff7:	c5 f9 6f 84 24 70 0a 	vmovdqa xmm0,XMMWORD PTR [rsp+0xa70]
  400ffe:	00 00 
  401000:	c5 f9 7f 84 24 c0 0f 	vmovdqa XMMWORD PTR [rsp+0xfc0],xmm0
  401007:	00 00 
  401009:	c5 f9 6f 84 24 80 0a 	vmovdqa xmm0,XMMWORD PTR [rsp+0xa80]
  401010:	00 00 
  401012:	c5 f9 7f 84 24 50 0c 	vmovdqa XMMWORD PTR [rsp+0xc50],xmm0
  401019:	00 00 
  40101b:	c5 f9 6f 84 24 90 0a 	vmovdqa xmm0,XMMWORD PTR [rsp+0xa90]
  401022:	00 00 
  401024:	c5 f9 7f 84 24 d0 0c 	vmovdqa XMMWORD PTR [rsp+0xcd0],xmm0
  40102b:	00 00 
  40102d:	c5 f9 6f 84 24 a0 0a 	vmovdqa xmm0,XMMWORD PTR [rsp+0xaa0]
  401034:	00 00 
  401036:	c5 f9 7f 84 24 50 0d 	vmovdqa XMMWORD PTR [rsp+0xd50],xmm0
  40103d:	00 00 
  40103f:	c5 f9 6f 84 24 b0 0a 	vmovdqa xmm0,XMMWORD PTR [rsp+0xab0]
  401046:	00 00 
  401048:	c5 f9 7f 84 24 d0 0d 	vmovdqa XMMWORD PTR [rsp+0xdd0],xmm0
  40104f:	00 00 
  401051:	c5 f9 6f 84 24 c0 0a 	vmovdqa xmm0,XMMWORD PTR [rsp+0xac0]
  401058:	00 00 
  40105a:	c5 f9 7f 84 24 50 0e 	vmovdqa XMMWORD PTR [rsp+0xe50],xmm0
  401061:	00 00 
  401063:	c5 f9 6f 84 24 d0 0a 	vmovdqa xmm0,XMMWORD PTR [rsp+0xad0]
  40106a:	00 00 
  40106c:	c5 f9 7f 84 24 d0 0e 	vmovdqa XMMWORD PTR [rsp+0xed0],xmm0
  401073:	00 00 
  401075:	c5 f9 6f 84 24 e0 0a 	vmovdqa xmm0,XMMWORD PTR [rsp+0xae0]
  40107c:	00 00 
  40107e:	c5 f9 7f 84 24 50 0f 	vmovdqa XMMWORD PTR [rsp+0xf50],xmm0
  401085:	00 00 
  401087:	c5 f9 6f 84 24 f0 0a 	vmovdqa xmm0,XMMWORD PTR [rsp+0xaf0]
  40108e:	00 00 
  401090:	c5 f9 7f 84 24 d0 0f 	vmovdqa XMMWORD PTR [rsp+0xfd0],xmm0
  401097:	00 00 
  401099:	c5 f9 6f 84 24 00 0b 	vmovdqa xmm0,XMMWORD PTR [rsp+0xb00]
  4010a0:	00 00 
  4010a2:	c5 f9 7f 84 24 60 0c 	vmovdqa XMMWORD PTR [rsp+0xc60],xmm0
  4010a9:	00 00 
  4010ab:	c5 f9 6f 84 24 10 0b 	vmovdqa xmm0,XMMWORD PTR [rsp+0xb10]
  4010b2:	00 00 
  4010b4:	c5 f9 7f 84 24 e0 0c 	vmovdqa XMMWORD PTR [rsp+0xce0],xmm0
  4010bb:	00 00 
  4010bd:	c5 f9 6f 84 24 20 0b 	vmovdqa xmm0,XMMWORD PTR [rsp+0xb20]
  4010c4:	00 00 
  4010c6:	c5 f9 7f 84 24 60 0d 	vmovdqa XMMWORD PTR [rsp+0xd60],xmm0
  4010cd:	00 00 
  4010cf:	c5 f9 6f 84 24 30 0b 	vmovdqa xmm0,XMMWORD PTR [rsp+0xb30]
  4010d6:	00 00 
  4010d8:	c5 f9 7f 84 24 e0 0d 	vmovdqa XMMWORD PTR [rsp+0xde0],xmm0
  4010df:	00 00 
  4010e1:	c5 f9 6f 84 24 40 0b 	vmovdqa xmm0,XMMWORD PTR [rsp+0xb40]
  4010e8:	00 00 
  4010ea:	c5 f9 7f 84 24 60 0e 	vmovdqa XMMWORD PTR [rsp+0xe60],xmm0
  4010f1:	00 00 
  4010f3:	c5 f9 6f 84 24 50 0b 	vmovdqa xmm0,XMMWORD PTR [rsp+0xb50]
  4010fa:	00 00 
  4010fc:	c5 f9 7f 84 24 e0 0e 	vmovdqa XMMWORD PTR [rsp+0xee0],xmm0
  401103:	00 00 
  401105:	c5 f9 6f 84 24 60 0b 	vmovdqa xmm0,XMMWORD PTR [rsp+0xb60]
  40110c:	00 00 
  40110e:	c5 f9 7f 84 24 60 0f 	vmovdqa XMMWORD PTR [rsp+0xf60],xmm0
  401115:	00 00 
  401117:	c5 f9 6f 84 24 70 0b 	vmovdqa xmm0,XMMWORD PTR [rsp+0xb70]
  40111e:	00 00 
  401120:	c5 f9 7f 84 24 e0 0f 	vmovdqa XMMWORD PTR [rsp+0xfe0],xmm0
  401127:	00 00 
  401129:	c5 f9 6f 84 24 80 0b 	vmovdqa xmm0,XMMWORD PTR [rsp+0xb80]
  401130:	00 00 
  401132:	c5 f9 7f 84 24 70 0c 	vmovdqa XMMWORD PTR [rsp+0xc70],xmm0
  401139:	00 00 
  40113b:	c5 f9 6f 84 24 90 0b 	vmovdqa xmm0,XMMWORD PTR [rsp+0xb90]
  401142:	00 00 
  401144:	c5 f9 7f 84 24 f0 0c 	vmovdqa XMMWORD PTR [rsp+0xcf0],xmm0
  40114b:	00 00 
  40114d:	c5 f9 6f 84 24 a0 0b 	vmovdqa xmm0,XMMWORD PTR [rsp+0xba0]
  401154:	00 00 
  401156:	c5 f9 7f 84 24 70 0d 	vmovdqa XMMWORD PTR [rsp+0xd70],xmm0
  40115d:	00 00 
  40115f:	c5 f9 6f 84 24 b0 0b 	vmovdqa xmm0,XMMWORD PTR [rsp+0xbb0]
  401166:	00 00 
  401168:	c5 f9 7f 84 24 f0 0d 	vmovdqa XMMWORD PTR [rsp+0xdf0],xmm0
  40116f:	00 00 
  401171:	c5 f9 6f 84 24 c0 0b 	vmovdqa xmm0,XMMWORD PTR [rsp+0xbc0]
  401178:	00 00 
  40117a:	c5 f9 7f 84 24 70 0e 	vmovdqa XMMWORD PTR [rsp+0xe70],xmm0
  401181:	00 00 
  401183:	c5 f9 6f 84 24 d0 0b 	vmovdqa xmm0,XMMWORD PTR [rsp+0xbd0]
  40118a:	00 00 
  40118c:	c5 f9 7f 84 24 f0 0e 	vmovdqa XMMWORD PTR [rsp+0xef0],xmm0
  401193:	00 00 
  401195:	c5 f9 6f 84 24 e0 0b 	vmovdqa xmm0,XMMWORD PTR [rsp+0xbe0]
  40119c:	00 00 
  40119e:	c5 f9 7f 84 24 70 0f 	vmovdqa XMMWORD PTR [rsp+0xf70],xmm0
  4011a5:	00 00 
  4011a7:	c5 f9 6f 84 24 f0 0b 	vmovdqa xmm0,XMMWORD PTR [rsp+0xbf0]
  4011ae:	00 00 
  4011b0:	c5 f9 7f 84 24 f0 0f 	vmovdqa XMMWORD PTR [rsp+0xff0],xmm0
  4011b7:	00 00 
  4011b9:	0f 1f 80 00 00 00 00 	nop    DWORD PTR [rax+0x0]
  4011c0:	4c 89 df             	mov    rdi,r11
  4011c3:	49 83 eb 80          	sub    r11,0xffffffffffffff80
  4011c7:	e8 64 f9 ff ff       	call   400b30 <argon2_p>
  4011cc:	48 8d 84 24 00 10 00 	lea    rax,[rsp+0x1000]
  4011d3:	00 
  4011d4:	49 39 c3             	cmp    r11,rax
  4011d7:	75 e7                	jne    4011c0 <argon2_g+0x500>
  4011d9:	c5 f9 6f 84 24 00 0c 	vmovdqa xmm0,XMMWORD PTR [rsp+0xc00]
  4011e0:	00 00 
  4011e2:	31 c0                	xor    eax,eax
  4011e4:	48 8d 94 24 00 04 00 	lea    rdx,[rsp+0x400]
  4011eb:	00 
  4011ec:	c5 f9 7f 84 24 00 04 	vmovdqa XMMWORD PTR [rsp+0x400],xmm0
  4011f3:	00 00 
  4011f5:	c5 f9 6f 84 24 10 0c 	vmovdqa xmm0,XMMWORD PTR [rsp+0xc10]
  4011fc:	00 00 
  4011fe:	c5 f9 7f 84 24 80 04 	vmovdqa XMMWORD PTR [rsp+0x480],xmm0
  401205:	00 00 
  401207:	c5 f9 6f 84 24 20 0c 	vmovdqa xmm0,XMMWORD PTR [rsp+0xc20]
  40120e:	00 00 
  401210:	c5 f9 7f 84 24 00 05 	vmovdqa XMMWORD PTR [rsp+0x500],xmm0
  401217:	00 00 
  401219:	c5 f9 6f 84 24 30 0c 	vmovdqa xmm0,XMMWORD PTR [rsp+0xc30]
  401220:	00 00 
  401222:	c5 f9 7f 84 24 80 05 	vmovdqa XMMWORD PTR [rsp+0x580],xmm0
  401229:	00 00 
  40122b:	c5 f9 6f 84 24 40 0c 	vmovdqa xmm0,XMMWORD PTR [rsp+0xc40]
  401232:	00 00 
  401234:	c5 f9 7f 84 24 00 06 	vmovdqa XMMWORD PTR [rsp+0x600],xmm0
  40123b:	00 00 
  40123d:	c5 f9 6f 84 24 50 0c 	vmovdqa xmm0,XMMWORD PTR [rsp+0xc50]
  401244:	00 00 
  401246:	c5 f9 7f 84 24 80 06 	vmovdqa XMMWORD PTR [rsp+0x680],xmm0
  40124d:	00 00 
  40124f:	c5 f9 6f 84 24 60 0c 	vmovdqa xmm0,XMMWORD PTR [rsp+0xc60]
  401256:	00 00 
  401258:	c5 f9 7f 84 24 00 07 	vmovdqa XMMWORD PTR [rsp+0x700],xmm0
  40125f:	00 00 
  401261:	c5 f9 6f 84 24 70 0c 	vmovdqa xmm0,XMMWORD PTR [rsp+0xc70]
  401268:	00 00 
  40126a:	c5 f9 7f 84 24 80 07 	vmovdqa XMMWORD PTR [rsp+0x780],xmm0
  401271:	00 00 
  401273:	c5 f9 6f 84 24 80 0c 	vmovdqa xmm0,XMMWORD PTR [rsp+0xc80]
  40127a:	00 00 
  40127c:	c5 f9 7f 84 24 10 04 	vmovdqa XMMWORD PTR [rsp+0x410],xmm0
  401283:	00 00 
  401285:	c5 f9 6f 84 24 90 0c 	vmovdqa xmm0,XMMWORD PTR [rsp+0xc90]
  40128c:	00 00 
  40128e:	c5 f9 7f 84 24 90 04 	vmovdqa XMMWORD PTR [rsp+0x490],xmm0
  401295:	00 00 
  401297:	c5 f9 6f 84 24 a0 0c 	vmovdqa xmm0,XMMWORD PTR [rsp+0xca0]
  40129e:	00 00 
  4012a0:	c5 f9 7f 84 24 10 05 	vmovdqa XMMWORD PTR [rsp+0x510],xmm0
  4012a7:	00 00 
  4012a9:	c5 f9 6f 84 24 b0 0c 	vmovdqa xmm0,XMMWORD PTR [rsp+0xcb0]
  4012b0:	00 00 
  4012b2:	c5 f9 7f 84 24 90 05 	vmovdqa XMMWORD PTR [rsp+0x590],xmm0
  4012b9:	00 00 
  4012bb:	c5 f9 6f 84 24 c0 0c 	vmovdqa xmm0,XMMWORD PTR [rsp+0xcc0]
  4012c2:	00 00 
  4012c4:	c5 f9 7f 84 24 10 06 	vmovdqa XMMWORD PTR [rsp+0x610],xmm0
  4012cb:	00 00 
  4012cd:	c5 f9 6f 84 24 d0 0c 	vmovdqa xmm0,XMMWORD PTR [rsp+0xcd0]
  4012d4:	00 00 
  4012d6:	c5 f9 7f 84 24 90 06 	vmovdqa XMMWORD PTR [rsp+0x690],xmm0
  4012dd:	00 00 
  4012df:	c5 f9 6f 84 24 e0 0c 	vmovdqa xmm0,XMMWORD PTR [rsp+0xce0]
  4012e6:	00 00 
  4012e8:	c5 f9 7f 84 24 10 07 	vmovdqa XMMWORD PTR [rsp+0x710],xmm0
  4012ef:	00 00 
  4012f1:	c5 f9 6f 84 24 f0 0c 	vmovdqa xmm0,XMMWORD PTR [rsp+0xcf0]
  4012f8:	00 00 
  4012fa:	c5 f9 7f 84 24 90 07 	vmovdqa XMMWORD PTR [rsp+0x790],xmm0
  401301:	00 00 
  401303:	c5 f9 6f 84 24 00 0d 	vmovdqa xmm0,XMMWORD PTR [rsp+0xd00]
  40130a:	00 00 
  40130c:	c5 f9 7f 84 24 20 04 	vmovdqa XMMWORD PTR [rsp+0x420],xmm0
  401313:	00 00 
  401315:	c5 f9 6f 84 24 10 0d 	vmovdqa xmm0,XMMWORD PTR [rsp+0xd10]
  40131c:	00 00 
  40131e:	c5 f9 7f 84 24 a0 04 	vmovdqa XMMWORD PTR [rsp+0x4a0],xmm0
  401325:	00 00 
  401327:	c5 f9 6f 84 24 20 0d 	vmovdqa xmm0,XMMWORD PTR [rsp+0xd20]
  40132e:	00 00 
  401330:	c5 f9 7f 84 24 20 05 	vmovdqa XMMWORD PTR [rsp+0x520],xmm0
  401337:	00 00 
  401339:	c5 f9 6f 84 24 30 0d 	vmovdqa xmm0,XMMWORD PTR [rsp+0xd30]
  401340:	00 00 
  401342:	c5 f9 7f 84 24 a0 05 	vmovdqa XMMWORD PTR [rsp+0x5a0],xmm0
  401349:	00 00 
  40134b:	c5 f9 6f 84 24 40 0d 	vmovdqa xmm0,XMMWORD PTR [rsp+0xd40]
  401352:	00 00 
  401354:	c5 f9 7f 84 24 20 06 	vmovdqa XMMWORD PTR [rsp+0x620],xmm0
  40135b:	00 00 
  40135d:	c5 f9 6f 84 24 50 0d 	vmovdqa xmm0,XMMWORD PTR [rsp+0xd50]
  401364:	00 00 
  401366:	c5 f9 7f 84 24 a0 06 	vmovdqa XMMWORD PTR [rsp+0x6a0],xmm0
  40136d:	00 00 
  40136f:	c5 f9 6f 84 24 60 0d 	vmovdqa xmm0,XMMWORD PTR [rsp+0xd60]
  401376:	00 00 
  401378:	c5 f9 7f 84 24 20 07 	vmovdqa XMMWORD PTR [rsp+0x720],xmm0
  40137f:	00 00 
  401381:	c5 f9 6f 84 24 70 0d 	vmovdqa xmm0,XMMWORD PTR [rsp+0xd70]
  401388:	00 00 
  40138a:	c5 f9 7f 84 24 a0 07 	vmovdqa XMMWORD PTR [rsp+0x7a0],xmm0
  401391:	00 00 
  401393:	c5 f9 6f 84 24 80 0d 	vmovdqa xmm0,XMMWORD PTR [rsp+0xd80]
  40139a:	00 00 
  40139c:	c5 f9 7f 84 24 30 04 	vmovdqa XMMWORD PTR [rsp+0x430],xmm0
  4013a3:	00 00 
  4013a5:	c5 f9 6f 84 24 90 0d 	vmovdqa xmm0,XMMWORD PTR [rsp+0xd90]
  4013ac:	00 00 
  4013ae:	c5 f9 7f 84 24 b0 04 	vmovdqa XMMWORD PTR [rsp+0x4b0],xmm0
  4013b5:	00 00 
  4013b7:	c5 f9 6f 84 24 a0 0d 	vmovdqa xmm0,XMMWORD PTR [rsp+0xda0]
  4013be:	00 00 
  4013c0:	c5 f9 7f 84 24 30 05 	vmovdqa XMMWORD PTR [rsp+0x530],xmm0
  4013c7:	00 00 
  4013c9:	c5 f9 6f 84 24 b0 0d 	vmovdqa xmm0,XMMWORD PTR [rsp+0xdb0]
  4013d0:	00 00 
  4013d2:	c5 f9 7f 84 24 b0 05 	vmovdqa XMMWORD PTR [rsp+0x5b0],xmm0
  4013d9:	00 00 
  4013db:	c5 f9 6f 84 24 c0 0d 	vmovdqa xmm0,XMMWORD PTR [rsp+0xdc0]
  4013e2:	00 00 
  4013e4:	c5 f9 7f 84 24 30 06 	vmovdqa XMMWORD PTR [rsp+0x630],xmm0
  4013eb:	00 00 
  4013ed:	c5 f9 6f 84 24 d0 0d 	vmovdqa xmm0,XMMWORD PTR [rsp+0xdd0]
  4013f4:	00 00 
  4013f6:	c5 f9 7f 84 24 b0 06 	vmovdqa XMMWORD PTR [rsp+0x6b0],xmm0
  4013fd:	00 00 
  4013ff:	c5 f9 6f 84 24 e0 0d 	vmovdqa xmm0,XMMWORD PTR [rsp+0xde0]
  401406:	00 00 
  401408:	c5 f9 7f 84 24 30 07 	vmovdqa XMMWORD PTR [rsp+0x730],xmm0
  40140f:	00 00 
  401411:	c5 f9 6f 84 24 f0 0d 	vmovdqa xmm0,XMMWORD PTR [rsp+0xdf0]
  401418:	00 00 
  40141a:	c5 f9 7f 84 24 b0 07 	vmovdqa XMMWORD PTR [rsp+0x7b0],xmm0
  401421:	00 00 
  401423:	c5 f9 6f 84 24 00 0e 	vmovdqa xmm0,XMMWORD PTR [rsp+0xe00]
  40142a:	00 00 
  40142c:	c5 f9 7f 84 24 40 04 	vmovdqa XMMWORD PTR [rsp+0x440],xmm0
  401433:	00 00 
  401435:	c5 f9 6f 84 24 10 0e 	vmovdqa xmm0,XMMWORD PTR [rsp+0xe10]
  40143c:	00 00 
  40143e:	c5 f9 7f 84 24 c0 04 	vmovdqa XMMWORD PTR [rsp+0x4c0],xmm0
  401445:	00 00 
  401447:	c5 f9 6f 84 24 20 0e 	vmovdqa xmm0,XMMWORD PTR [rsp+0xe20]
  40144e:	00 00 
  401450:	c5 f9 7f 84 24 40 05 	vmovdqa XMMWORD PTR [rsp+0x540],xmm0
  401457:	00 00 
  401459:	c5 f9 6f 84 24 30 0e 	vmovdqa xmm0,XMMWORD PTR [rsp+0xe30]
  401460:	00 00 
  401462:	c5 f9 7f 84 24 c0 05 	vmovdqa XMMWORD PTR [rsp+0x5c0],xmm0
  401469:	00 00 
  40146b:	c5 f9 6f 84 24 40 0e 	vmovdqa xmm0,XMMWORD PTR [rsp+0xe40]
  401472:	00 00 
  401474:	c5 f9 7f 84 24 40 06 	vmovdqa XMMWORD PTR [rsp+0x640],xmm0
  40147b:	00 00 
  40147d:	c5 f9 6f 84 24 50 0e 	vmovdqa xmm0,XMMWORD PTR [rsp+0xe50]
  401484:	00 00 
  401486:	c5 f9 7f 84 24 c0 06 	vmovdqa XMMWORD PTR [rsp+0x6c0],xmm0
  40148d:	00 00 
  40148f:	c5 f9 6f 84 24 60 0e 	vmovdqa xmm0,XMMWORD PTR [rsp+0xe60]
  401496:	00 00 
  401498:	c5 f9 7f 84 24 40 07 	vmovdqa XMMWORD PTR [rsp+0x740],xmm0
  40149f:	00 00 
  4014a1:	c5 f9 6f 84 24 70 0e 	vmovdqa xmm0,XMMWORD PTR [rsp+0xe70]
  4014a8:	00 00 
  4014aa:	c5 f9 7f 84 24 c0 07 	vmovdqa XMMWORD PTR [rsp+0x7c0],xmm0
  4014b1:	00 00 
  4014b3:	c5 f9 6f 84 24 80 0e 	vmovdqa xmm0,XMMWORD PTR [rsp+0xe80]
  4014ba:	00 00 
  4014bc:	c5 f9 7f 84 24 50 04 	vmovdqa XMMWORD PTR [rsp+0x450],xmm0
  4014c3:	00 00 
  4014c5:	c5 f9 6f 84 24 90 0e 	vmovdqa xmm0,XMMWORD PTR [rsp+0xe90]
  4014cc:	00 00 
  4014ce:	c5 f9 7f 84 24 d0 04 	vmovdqa XMMWORD PTR [rsp+0x4d0],xmm0
  4014d5:	00 00 
  4014d7:	c5 f9 6f 84 24 a0 0e 	vmovdqa xmm0,XMMWORD PTR [rsp+0xea0]
  4014de:	00 00 
  4014e0:	c5 f9 7f 84 24 50 05 	vmovdqa XMMWORD PTR [rsp+0x550],xmm0
  4014e7:	00 00 
  4014e9:	c5 f9 6f 84 24 b0 0e 	vmovdqa xmm0,XMMWORD PTR [rsp+0xeb0]
  4014f0:	00 00 
  4014f2:	c5 f9 7f 84 24 d0 05 	vmovdqa XMMWORD PTR [rsp+0x5d0],xmm0
  4014f9:	00 00 
  4014fb:	c5 f9 6f 84 24 c0 0e 	vmovdqa xmm0,XMMWORD PTR [rsp+0xec0]
  401502:	00 00 
  401504:	c5 f9 7f 84 24 50 06 	vmovdqa XMMWORD PTR [rsp+0x650],xmm0
  40150b:	00 00 
  40150d:	c5 f9 6f 84 24 d0 0e 	vmovdqa xmm0,XMMWORD PTR [rsp+0xed0]
  401514:	00 00 
  401516:	c5 f9 7f 84 24 d0 06 	vmovdqa XMMWORD PTR [rsp+0x6d0],xmm0
  40151d:	00 00 
  40151f:	c5 f9 6f 84 24 e0 0e 	vmovdqa xmm0,XMMWORD PTR [rsp+0xee0]
  401526:	00 00 
  401528:	c5 f9 7f 84 24 50 07 	vmovdqa XMMWORD PTR [rsp+0x750],xmm0
  40152f:	00 00 
  401531:	c5 f9 6f 84 24 f0 0e 	vmovdqa xmm0,XMMWORD PTR [rsp+0xef0]
  401538:	00 00 
  40153a:	c5 f9 7f 84 24 d0 07 	vmovdqa XMMWORD PTR [rsp+0x7d0],xmm0
  401541:	00 00 
  401543:	c5 f9 6f 84 24 00 0f 	vmovdqa xmm0,XMMWORD PTR [rsp+0xf00]
  40154a:	00 00 
  40154c:	c5 f9 7f 84 24 60 04 	vmovdqa XMMWORD PTR [rsp+0x460],xmm0
  401553:	00 00 
  401555:	c5 f9 6f 84 24 10 0f 	vmovdqa xmm0,XMMWORD PTR [rsp+0xf10]
  40155c:	00 00 
  40155e:	c5 f9 7f 84 24 e0 04 	vmovdqa XMMWORD PTR [rsp+0x4e0],xmm0
  401565:	00 00 
  401567:	c5 f9 6f 84 24 20 0f 	vmovdqa xmm0,XMMWORD PTR [rsp+0xf20]
  40156e:	00 00 
  401570:	c5 f9 7f 84 24 60 05 	vmovdqa XMMWORD PTR [rsp+0x560],xmm0
  401577:	00 00 
  401579:	c5 f9 6f 84 24 30 0f 	vmovdqa xmm0,XMMWORD PTR [rsp+0xf30]
  401580:	00 00 
  401582:	c5 f9 7f 84 24 e0 05 	vmovdqa XMMWORD PTR [rsp+0x5e0],xmm0
  401589:	00 00 
  40158b:	c5 f9 6f 84 24 40 0f 	vmovdqa xmm0,XMMWORD PTR [rsp+0xf40]
  401592:	00 00 
  401594:	c5 f9 7f 84 24 60 06 	vmovdqa XMMWORD PTR [rsp+0x660],xmm0
  40159b:	00 00 
  40159d:	c5 f9 6f 84 24 50 0f 	vmovdqa xmm0,XMMWORD PTR [rsp+0xf50]
  4015a4:	00 00 
  4015a6:	c5 f9 7f 84 24 e0 06 	vmovdqa XMMWORD PTR [rsp+0x6e0],xmm0
  4015ad:	00 00 
  4015af:	c5 f9 6f 84 24 60 0f 	vmovdqa xmm0,XMMWORD PTR [rsp+0xf60]
  4015b6:	00 00 
  4015b8:	c5 f9 7f 84 24 60 07 	vmovdqa XMMWORD PTR [rsp+0x760],xmm0
  4015bf:	00 00 
  4015c1:	c5 f9 6f 84 24 70 0f 	vmovdqa xmm0,XMMWORD PTR [rsp+0xf70]
  4015c8:	00 00 
  4015ca:	c5 f9 7f 84 24 e0 07 	vmovdqa XMMWORD PTR [rsp+0x7e0],xmm0
  4015d1:	00 00 
  4015d3:	c5 f9 6f 84 24 80 0f 	vmovdqa xmm0,XMMWORD PTR [rsp+0xf80]
  4015da:	00 00 
  4015dc:	c5 f9 7f 84 24 70 04 	vmovdqa XMMWORD PTR [rsp+0x470],xmm0
  4015e3:	00 00 
  4015e5:	c5 f9 6f 84 24 90 0f 	vmovdqa xmm0,XMMWORD PTR [rsp+0xf90]
  4015ec:	00 00 
  4015ee:	c5 f9 7f 84 24 f0 04 	vmovdqa XMMWORD PTR [rsp+0x4f0],xmm0
  4015f5:	00 00 
  4015f7:	c5 f9 6f 84 24 a0 0f 	vmovdqa xmm0,XMMWORD PTR [rsp+0xfa0]
  4015fe:	00 00 
  401600:	c5 f9 7f 84 24 70 05 	vmovdqa XMMWORD PTR [rsp+0x570],xmm0
  401607:	00 00 
  401609:	c5 f9 6f 84 24 b0 0f 	vmovdqa xmm0,XMMWORD PTR [rsp+0xfb0]
  401610:	00 00 
  401612:	c5 f9 7f 84 24 f0 05 	vmovdqa XMMWORD PTR [rsp+0x5f0],xmm0
  401619:	00 00 
  40161b:	c5 f9 6f 84 24 c0 0f 	vmovdqa xmm0,XMMWORD PTR [rsp+0xfc0]
  401622:	00 00 
  401624:	c5 f9 7f 84 24 70 06 	vmovdqa XMMWORD PTR [rsp+0x670],xmm0
  40162b:	00 00 
  40162d:	c5 f9 6f 84 24 d0 0f 	vmovdqa xmm0,XMMWORD PTR [rsp+0xfd0]
  401634:	00 00 
  401636:	c5 f9 7f 84 24 f0 06 	vmovdqa XMMWORD PTR [rsp+0x6f0],xmm0
  40163d:	00 00 
  40163f:	c5 f9 6f 84 24 e0 0f 	vmovdqa xmm0,XMMWORD PTR [rsp+0xfe0]
  401646:	00 00 
  401648:	c5 f9 7f 84 24 70 07 	vmovdqa XMMWORD PTR [rsp+0x770],xmm0
  40164f:	00 00 
  401651:	c5 f9 6f 84 24 f0 0f 	vmovdqa xmm0,XMMWORD PTR [rsp+0xff0]
  401658:	00 00 
  40165a:	c5 f9 7f 84 24 f0 07 	vmovdqa XMMWORD PTR [rsp+0x7f0],xmm0
  401661:	00 00 
  401663:	0f 1f 80 00 00 00 00 	nop    DWORD PTR [rax+0x0]
  40166a:	66 66 2e 0f 1f 84 00 	data16 cs nop WORD PTR [rax+rax*1+0x0]
  401671:	00 00 00 00 
  401675:	66 66 2e 0f 1f 84 00 	data16 cs nop WORD PTR [rax+rax*1+0x0]
  40167c:	00 00 00 00 
  401680:	c5 fd 6f 04 02       	vmovdqa ymm0,YMMWORD PTR [rdx+rax*1]
  401685:	c5 fd ef 04 04       	vpxor  ymm0,ymm0,YMMWORD PTR [rsp+rax*1]
  40168a:	c5 fe 7f 04 03       	vmovdqu YMMWORD PTR [rbx+rax*1],ymm0
  40168f:	48 83 c0 20          	add    rax,0x20
  401693:	48 3d 00 04 00 00    	cmp    rax,0x400
  401699:	75 e5                	jne    401680 <argon2_g+0x9c0>
  40169b:	c5 f8 77             	vzeroupper
  40169e:	48 8d 65 f0          	lea    rsp,[rbp-0x10]
  4016a2:	5b                   	pop    rbx
  4016a3:	41 5c                	pop    r12
  4016a5:	5d                   	pop    rbp
  4016a6:	c3                   	ret
  4016a7:	66 0f 1f 84 00 00 00 	nop    WORD PTR [rax+rax*1+0x0]
  4016ae:	00 00 

00000000004016b0 <argon2_initJ1J2_blockpool_for2i>:
  4016b0:	55                   	push   rbp
  4016b1:	48 89 e5             	mov    rbp,rsp
  4016b4:	41 55                	push   r13
  4016b6:	49 89 d5             	mov    r13,rdx
  4016b9:	ba 00 04 00 00       	mov    edx,0x400
  4016be:	41 54                	push   r12
  4016c0:	49 89 f4             	mov    r12,rsi
  4016c3:	31 f6                	xor    esi,esi
  4016c5:	53                   	push   rbx
  4016c6:	48 89 fb             	mov    rbx,rdi
  4016c9:	48 81 ec d8 0f 00 00 	sub    rsp,0xfd8
  4016d0:	48 8d bc 24 d0 03 00 	lea    rdi,[rsp+0x3d0]
  4016d7:	00 
  4016d8:	e8 73 ed ff ff       	call   400450 <memset@plt>
  4016dd:	31 f6                	xor    esi,esi
  4016df:	ba c8 03 00 00       	mov    edx,0x3c8
  4016e4:	48 89 e7             	mov    rdi,rsp
  4016e7:	e8 64 ed ff ff       	call   400450 <memset@plt>
  4016ec:	c5 fe 6f 03          	vmovdqu ymm0,YMMWORD PTR [rbx]
  4016f0:	ba c8 03 00 00       	mov    edx,0x3c8
  4016f5:	48 89 e6             	mov    rsi,rsp
  4016f8:	48 8d bc 24 08 08 00 	lea    rdi,[rsp+0x808]
  4016ff:	00 
  401700:	c5 fe 7f 84 24 d0 07 	vmovdqu YMMWORD PTR [rsp+0x7d0],ymm0
  401707:	00 00 
  401709:	c5 fa 6f 43 20       	vmovdqu xmm0,XMMWORD PTR [rbx+0x20]
  40170e:	c5 f9 7f 84 24 f0 07 	vmovdqa XMMWORD PTR [rsp+0x7f0],xmm0
  401715:	00 00 
  401717:	c5 f8 77             	vzeroupper
  40171a:	e8 81 ed ff ff       	call   4004a0 <memcpy@plt>
  40171f:	4d 85 ed             	test   r13,r13
  401722:	74 59                	je     40177d <argon2_initJ1J2_blockpool_for2i+0xcd>
  401724:	31 db                	xor    ebx,ebx
  401726:	66 2e 0f 1f 84 00 00 	cs nop WORD PTR [rax+rax*1+0x0]
  40172d:	00 00 00 
  401730:	48 83 c3 01          	add    rbx,0x1
  401734:	48 8d 94 24 d0 0b 00 	lea    rdx,[rsp+0xbd0]
  40173b:	00 
  40173c:	48 8d b4 24 d0 07 00 	lea    rsi,[rsp+0x7d0]
  401743:	00 
  401744:	48 8d bc 24 d0 03 00 	lea    rdi,[rsp+0x3d0]
  40174b:	00 
  40174c:	48 89 9c 24 00 08 00 	mov    QWORD PTR [rsp+0x800],rbx
  401753:	00 
  401754:	e8 67 f5 ff ff       	call   400cc0 <argon2_g>
  401759:	4c 89 e2             	mov    rdx,r12
  40175c:	48 8d b4 24 d0 0b 00 	lea    rsi,[rsp+0xbd0]
  401763:	00 
  401764:	48 8d bc 24 d0 03 00 	lea    rdi,[rsp+0x3d0]
  40176b:	00 
  40176c:	e8 4f f5 ff ff       	call   400cc0 <argon2_g>
  401771:	49 81 c4 00 04 00 00 	add    r12,0x400
  401778:	4c 39 eb             	cmp    rbx,r13
  40177b:	75 b3                	jne    401730 <argon2_initJ1J2_blockpool_for2i+0x80>
  40177d:	48 81 c4 d8 0f 00 00 	add    rsp,0xfd8
  401784:	5b                   	pop    rbx
  401785:	41 5c                	pop    r12
  401787:	41 5d                	pop    r13
  401789:	5d                   	pop    rbp
  40178a:	c3                   	ret
  40178b:	0f 1f 44 00 00       	nop    DWORD PTR [rax+rax*1+0x0]

0000000000401790 <argon2_transform_segment>:
  401790:	55                   	push   rbp
  401791:	48 89 e5             	mov    rbp,rsp
  401794:	41 57                	push   r15
  401796:	41 56                	push   r14
  401798:	41 55                	push   r13
  40179a:	45 31 ed             	xor    r13d,r13d
  40179d:	41 54                	push   r12
  40179f:	49 89 fc             	mov    r12,rdi
  4017a2:	53                   	push   rbx
  4017a3:	31 db                	xor    ebx,ebx
  4017a5:	48 81 ec 98 00 00 00 	sub    rsp,0x98
  4017ac:	48 8b 47 10          	mov    rax,QWORD PTR [rdi+0x10]
  4017b0:	4c 8b 7f 40          	mov    r15,QWORD PTR [rdi+0x40]
  4017b4:	4c 8b 77 18          	mov    r14,QWORD PTR [rdi+0x18]
  4017b8:	4c 8b 47 08          	mov    r8,QWORD PTR [rdi+0x8]
  4017bc:	48 89 44 24 40       	mov    QWORD PTR [rsp+0x40],rax
  4017c1:	48 8b 47 38          	mov    rax,QWORD PTR [rdi+0x38]
  4017c5:	4d 85 ff             	test   r15,r15
  4017c8:	48 89 44 24 38       	mov    QWORD PTR [rsp+0x38],rax
  4017cd:	48 8b 47 20          	mov    rax,QWORD PTR [rdi+0x20]
  4017d1:	48 89 44 24 48       	mov    QWORD PTR [rsp+0x48],rax
  4017d6:	0f 88 94 04 00 00    	js     401c70 <argon2_transform_segment+0x4e0>
  4017dc:	c5 c9 57 f6          	vxorpd xmm6,xmm6,xmm6
  4017e0:	c4 c1 cb 2a c7       	vcvtsi2sd xmm0,xmm6,r15
  4017e5:	c5 fb 59 05 d3 98 01 	vmulsd xmm0,xmm0,QWORD PTR [rip+0x198d3]        # 41b0c0 <BLAKE2B_IV+0xc0>
  4017ec:	00 
  4017ed:	c5 fb 10 0d d3 98 01 	vmovsd xmm1,QWORD PTR [rip+0x198d3]        # 41b0c8 <BLAKE2B_IV+0xc8>
  4017f4:	00 
  4017f5:	c4 e3 79 0b c0 0a    	vroundsd xmm0,xmm0,xmm0,0xa
  4017fb:	c5 f9 2f c1          	vcomisd xmm0,xmm1
  4017ff:	0f 83 db 02 00 00    	jae    401ae0 <argon2_transform_segment+0x350>
  401805:	c4 e1 fb 2c c0       	vcvttsd2si rax,xmm0
  40180a:	48 89 44 24 58       	mov    QWORD PTR [rsp+0x58],rax
  40180f:	48 89 c6             	mov    rsi,rax
  401812:	49 8b 04 24          	mov    rax,QWORD PTR [r12]
  401816:	48 c1 e6 0a          	shl    rsi,0xa
  40181a:	bf 01 00 00 00       	mov    edi,0x1
  40181f:	4c 89 44 24 18       	mov    QWORD PTR [rsp+0x18],r8
  401824:	48 89 44 24 50       	mov    QWORD PTR [rsp+0x50],rax
  401829:	e8 52 ec ff ff       	call   400480 <calloc@plt>
  40182e:	31 d2                	xor    edx,edx
  401830:	4d 89 f3             	mov    r11,r14
  401833:	b9 02 00 00 00       	mov    ecx,0x2
  401838:	48 89 44 24 28       	mov    QWORD PTR [rsp+0x28],rax
  40183d:	48 89 c6             	mov    rsi,rax
  401840:	48 8b 44 24 48       	mov    rax,QWORD PTR [rsp+0x48]
  401845:	48 8d 7c 24 60       	lea    rdi,[rsp+0x60]
  40184a:	c4 c1 7e 6f 44 24 08 	vmovdqu ymm0,YMMWORD PTR [r12+0x8]
  401851:	48 f7 74 24 38       	div    QWORD PTR [rsp+0x38]
  401856:	48 8b 54 24 58       	mov    rdx,QWORD PTR [rsp+0x58]
  40185b:	c5 fe 7f 44 24 60    	vmovdqu YMMWORD PTR [rsp+0x60],ymm0
  401861:	c4 c1 7a 6f 44 24 28 	vmovdqu xmm0,XMMWORD PTR [r12+0x28]
  401868:	c5 f9 7f 84 24 80 00 	vmovdqa XMMWORD PTR [rsp+0x80],xmm0
  40186f:	00 00 
  401871:	48 c1 e8 02          	shr    rax,0x2
  401875:	4c 0f af d8          	imul   r11,rax
  401879:	4c 01 d8             	add    rax,r11
  40187c:	4d 85 f6             	test   r14,r14
  40187f:	4c 89 5c 24 30       	mov    QWORD PTR [rsp+0x30],r11
  401884:	49 0f 45 cb          	cmovne rcx,r11
  401888:	48 89 44 24 20       	mov    QWORD PTR [rsp+0x20],rax
  40188d:	49 83 fe 01          	cmp    r14,0x1
  401891:	4d 19 e4             	sbb    r12,r12
  401894:	48 89 4c 24 48       	mov    QWORD PTR [rsp+0x48],rcx
  401899:	41 83 e4 02          	and    r12d,0x2
  40189d:	c5 f8 77             	vzeroupper
  4018a0:	e8 0b fe ff ff       	call   4016b0 <argon2_initJ1J2_blockpool_for2i>
  4018a5:	48 8b 4c 24 48       	mov    rcx,QWORD PTR [rsp+0x48]
  4018aa:	48 8b 44 24 20       	mov    rax,QWORD PTR [rsp+0x20]
  4018af:	4c 8b 5c 24 30       	mov    r11,QWORD PTR [rsp+0x30]
  4018b4:	4c 8b 44 24 18       	mov    r8,QWORD PTR [rsp+0x18]
  4018b9:	48 39 c1             	cmp    rcx,rax
  4018bc:	c5 fb 10 0d 04 98 01 	vmovsd xmm1,QWORD PTR [rip+0x19804]        # 41b0c8 <BLAKE2B_IV+0xc8>
  4018c3:	00 
  4018c4:	0f 83 f6 01 00 00    	jae    401ac0 <argon2_transform_segment+0x330>
  4018ca:	4c 8b 4c 24 40       	mov    r9,QWORD PTR [rsp+0x40]
  4018cf:	4d 89 f2             	mov    r10,r14
  4018d2:	4d 09 c2             	or     r10,r8
  4018d5:	4d 0f af cf          	imul   r9,r15
  4018d9:	4d 85 c0             	test   r8,r8
  4018dc:	75 0a                	jne    4018e8 <argon2_transform_segment+0x158>
  4018de:	49 83 fe 01          	cmp    r14,0x1
  4018e2:	0f 86 b0 03 00 00    	jbe    401c98 <argon2_transform_segment+0x508>
  4018e8:	48 8b 54 24 50       	mov    rdx,QWORD PTR [rsp+0x50]
  4018ed:	48 8b 74 24 40       	mov    rsi,QWORD PTR [rsp+0x40]
  4018f2:	4d 85 d2             	test   r10,r10
  4018f5:	48 8d 14 f2          	lea    rdx,[rdx+rsi*8]
  4018f9:	48 89 54 24 48       	mov    QWORD PTR [rsp+0x48],rdx
  4018fe:	0f 84 fc 01 00 00    	je     401b00 <argon2_transform_segment+0x370>
  401904:	4c 01 e0             	add    rax,r12
  401907:	4d 8d 34 09          	lea    r14,[r9+rcx*1]
  40190b:	49 89 c8             	mov    r8,rcx
  40190e:	4c 89 7c 24 18       	mov    QWORD PTR [rsp+0x18],r15
  401913:	49 c1 e6 0a          	shl    r14,0xa
  401917:	48 29 c8             	sub    rax,rcx
  40191a:	49 c1 e0 0a          	shl    r8,0xa
  40191e:	4c 89 5c 24 10       	mov    QWORD PTR [rsp+0x10],r11
  401923:	48 89 44 24 20       	mov    QWORD PTR [rsp+0x20],rax
  401928:	c5 fb 10 1d a0 97 01 	vmovsd xmm3,QWORD PTR [rip+0x197a0]        # 41b0d0 <BLAKE2B_IV+0xd0>
  40192f:	00 
  401930:	49 8d 43 ff          	lea    rax,[r11-0x1]
  401934:	48 b9 00 00 00 00 ff 	movabs rcx,0xffffffff00000000
  40193b:	ff ff ff 
  40193e:	48 89 44 24 30       	mov    QWORD PTR [rsp+0x30],rax
  401943:	4c 89 f0             	mov    rax,r14
  401946:	4d 8d b8 04 fc ff ff 	lea    r15,[r8-0x3fc]
  40194d:	4d 89 e6             	mov    r14,r12
  401950:	c5 fb 11 5c 24 58    	vmovsd QWORD PTR [rsp+0x58],xmm3
  401956:	49 89 c4             	mov    r12,rax
  401959:	eb 7b                	jmp    4019d6 <argon2_transform_segment+0x246>
  40195b:	0f 1f 44 00 00       	nop    DWORD PTR [rax+rax*1+0x0]
  401960:	c4 e1 fb 2c f8       	vcvttsd2si rdi,xmm0
  401965:	49 0f af fb          	imul   rdi,r11
  401969:	48 85 ff             	test   rdi,rdi
  40196c:	0f 88 00 01 00 00    	js     401a72 <argon2_transform_segment+0x2e2>
  401972:	c5 e9 57 d2          	vxorpd xmm2,xmm2,xmm2
  401976:	c4 e1 eb 2a c7       	vcvtsi2sd xmm0,xmm2,rdi
  40197b:	c5 fb 59 44 24 58    	vmulsd xmm0,xmm0,QWORD PTR [rsp+0x58]
  401981:	c5 f9 2f c1          	vcomisd xmm0,xmm1
  401985:	0f 83 10 01 00 00    	jae    401a9b <argon2_transform_segment+0x30b>
  40198b:	c4 e1 fb 2c f8       	vcvttsd2si rdi,xmm0
  401990:	48 29 fe             	sub    rsi,rdi
  401993:	4a 8d bc 20 00 fc ff 	lea    rdi,[rax+r12*1-0x400]
  40199a:	ff 
  40199b:	49 83 c6 01          	add    r14,0x1
  40199f:	49 81 c7 00 04 00 00 	add    r15,0x400
  4019a6:	48 c1 e6 0a          	shl    rsi,0xa
  4019aa:	49 81 c4 00 04 00 00 	add    r12,0x400
  4019b1:	48 01 c6             	add    rsi,rax
  4019b4:	e8 07 f3 ff ff       	call   400cc0 <argon2_g>
  4019b9:	4c 39 74 24 20       	cmp    QWORD PTR [rsp+0x20],r14
  4019be:	c5 fb 10 0d 02 97 01 	vmovsd xmm1,QWORD PTR [rip+0x19702]        # 41b0c8 <BLAKE2B_IV+0xc8>
  4019c5:	00 
  4019c6:	48 b9 00 00 00 00 ff 	movabs rcx,0xffffffff00000000
  4019cd:	ff ff ff 
  4019d0:	0f 84 ea 00 00 00    	je     401ac0 <argon2_transform_segment+0x330>
  4019d6:	48 8b 44 24 48       	mov    rax,QWORD PTR [rsp+0x48]
  4019db:	48 21 cb             	and    rbx,rcx
  4019de:	49 21 cd             	and    r13,rcx
  4019e1:	48 8b 74 24 18       	mov    rsi,QWORD PTR [rsp+0x18]
  4019e6:	48 89 df             	mov    rdi,rbx
  4019e9:	48 8b 10             	mov    rdx,QWORD PTR [rax]
  4019ec:	42 8b 04 3a          	mov    eax,DWORD PTR [rdx+r15*1]
  4019f0:	42 8b 54 3a fc       	mov    edx,DWORD PTR [rdx+r15*1-0x4]
  4019f5:	48 09 d7             	or     rdi,rdx
  4019f8:	31 d2                	xor    edx,edx
  4019fa:	49 09 c5             	or     r13,rax
  4019fd:	48 f7 74 24 38       	div    QWORD PTR [rsp+0x38]
  401a02:	48 89 fb             	mov    rbx,rdi
  401a05:	48 0f af f2          	imul   rsi,rdx
  401a09:	48 39 54 24 40       	cmp    QWORD PTR [rsp+0x40],rdx
  401a0e:	0f 84 4c 02 00 00    	je     401c60 <argon2_transform_segment+0x4d0>
  401a14:	4c 8b 5c 24 10       	mov    r11,QWORD PTR [rsp+0x10]
  401a19:	4d 85 f6             	test   r14,r14
  401a1c:	4c 0f 44 5c 24 30    	cmove  r11,QWORD PTR [rsp+0x30]
  401a22:	0f af ff             	imul   edi,edi
  401a25:	c5 e9 57 d2          	vxorpd xmm2,xmm2,xmm2
  401a29:	48 8b 44 24 50       	mov    rax,QWORD PTR [rsp+0x50]
  401a2e:	4a 8d 74 1e ff       	lea    rsi,[rsi+r11*1-0x1]
  401a33:	48 8b 00             	mov    rax,QWORD PTR [rax]
  401a36:	c4 e1 eb 2a c7       	vcvtsi2sd xmm0,xmm2,rdi
  401a3b:	c5 fb 59 44 24 58    	vmulsd xmm0,xmm0,QWORD PTR [rsp+0x58]
  401a41:	4a 8d 14 20          	lea    rdx,[rax+r12*1]
  401a45:	c5 f9 2f c1          	vcomisd xmm0,xmm1
  401a49:	0f 82 11 ff ff ff    	jb     401960 <argon2_transform_segment+0x1d0>
  401a4f:	49 b9 00 00 00 00 00 	movabs r9,0x8000000000000000
  401a56:	00 00 80 
  401a59:	c5 fb 5c c1          	vsubsd xmm0,xmm0,xmm1
  401a5d:	c4 e1 fb 2c f8       	vcvttsd2si rdi,xmm0
  401a62:	4c 31 cf             	xor    rdi,r9
  401a65:	49 0f af fb          	imul   rdi,r11
  401a69:	48 85 ff             	test   rdi,rdi
  401a6c:	0f 89 00 ff ff ff    	jns    401972 <argon2_transform_segment+0x1e2>
  401a72:	49 89 fb             	mov    r11,rdi
  401a75:	83 e7 01             	and    edi,0x1
  401a78:	c5 c1 57 ff          	vxorpd xmm7,xmm7,xmm7
  401a7c:	49 d1 eb             	shr    r11,1
  401a7f:	49 09 fb             	or     r11,rdi
  401a82:	c4 c1 c3 2a c3       	vcvtsi2sd xmm0,xmm7,r11
  401a87:	c5 fb 58 c0          	vaddsd xmm0,xmm0,xmm0
  401a8b:	c5 fb 59 44 24 58    	vmulsd xmm0,xmm0,QWORD PTR [rsp+0x58]
  401a91:	c5 f9 2f c1          	vcomisd xmm0,xmm1
  401a95:	0f 82 f0 fe ff ff    	jb     40198b <argon2_transform_segment+0x1fb>
  401a9b:	49 b9 00 00 00 00 00 	movabs r9,0x8000000000000000
  401aa2:	00 00 80 
  401aa5:	c5 fb 5c c1          	vsubsd xmm0,xmm0,xmm1
  401aa9:	c4 e1 fb 2c f8       	vcvttsd2si rdi,xmm0
  401aae:	4c 31 cf             	xor    rdi,r9
  401ab1:	e9 da fe ff ff       	jmp    401990 <argon2_transform_segment+0x200>
  401ab6:	66 2e 0f 1f 84 00 00 	cs nop WORD PTR [rax+rax*1+0x0]
  401abd:	00 00 00 
  401ac0:	48 8b 7c 24 28       	mov    rdi,QWORD PTR [rsp+0x28]
  401ac5:	e8 a6 e8 ff ff       	call   400370 <free@plt>
  401aca:	48 81 c4 98 00 00 00 	add    rsp,0x98
  401ad1:	31 c0                	xor    eax,eax
  401ad3:	5b                   	pop    rbx
  401ad4:	41 5c                	pop    r12
  401ad6:	41 5d                	pop    r13
  401ad8:	41 5e                	pop    r14
  401ada:	41 5f                	pop    r15
  401adc:	5d                   	pop    rbp
  401add:	c3                   	ret
  401ade:	66 90                	xchg   ax,ax
  401ae0:	c5 fb 5c c1          	vsubsd xmm0,xmm0,xmm1
  401ae4:	c4 e1 fb 2c c0       	vcvttsd2si rax,xmm0
  401ae9:	48 0f ba f8 3f       	btc    rax,0x3f
  401aee:	48 89 44 24 58       	mov    QWORD PTR [rsp+0x58],rax
  401af3:	48 89 c6             	mov    rsi,rax
  401af6:	e9 17 fd ff ff       	jmp    401812 <argon2_transform_segment+0x82>
  401afb:	0f 1f 44 00 00       	nop    DWORD PTR [rax+rax*1+0x0]
  401b00:	4d 8d 71 ff          	lea    r14,[r9-0x1]
  401b04:	49 f7 d9             	neg    r9
  401b07:	4d 8d 6c 24 ff       	lea    r13,[r12-0x1]
  401b0c:	c5 fb 10 1d bc 95 01 	vmovsd xmm3,QWORD PTR [rip+0x195bc]        # 41b0d0 <BLAKE2B_IV+0xd0>
  401b13:	00 
  401b14:	4a 8d 44 20 ff       	lea    rax,[rax+r12*1-0x1]
  401b19:	4d 89 cc             	mov    r12,r9
  401b1c:	4e 8d 3c 31          	lea    r15,[rcx+r14*1]
  401b20:	48 29 c8             	sub    rax,rcx
  401b23:	49 c1 e4 0a          	shl    r12,0xa
  401b27:	c5 fb 11 5c 24 58    	vmovsd QWORD PTR [rsp+0x58],xmm3
  401b2d:	49 c1 e7 0a          	shl    r15,0xa
  401b31:	48 89 44 24 40       	mov    QWORD PTR [rsp+0x40],rax
  401b36:	4c 89 e0             	mov    rax,r12
  401b39:	4d 89 ec             	mov    r12,r13
  401b3c:	4d 89 fd             	mov    r13,r15
  401b3f:	49 89 c7             	mov    r15,rax
  401b42:	eb 5d                	jmp    401ba1 <argon2_transform_segment+0x411>
  401b44:	0f 1f 40 00          	nop    DWORD PTR [rax+0x0]
  401b48:	c4 e1 fb 2c c0       	vcvttsd2si rax,xmm0
  401b4d:	49 0f af c4          	imul   rax,r12
  401b51:	48 85 c0             	test   rax,rax
  401b54:	0f 88 c0 00 00 00    	js     401c1a <argon2_transform_segment+0x48a>
  401b5a:	c5 e1 57 db          	vxorpd xmm3,xmm3,xmm3
  401b5e:	c4 e1 e3 2a c0       	vcvtsi2sd xmm0,xmm3,rax
  401b63:	c5 fb 59 44 24 58    	vmulsd xmm0,xmm0,QWORD PTR [rsp+0x58]
  401b69:	c5 f9 2f c1          	vcomisd xmm0,xmm1
  401b6d:	0f 83 d0 00 00 00    	jae    401c43 <argon2_transform_segment+0x4b3>
  401b73:	c4 61 fb 2c d0       	vcvttsd2si r10,xmm0
  401b78:	4c 89 c8             	mov    rax,r9
  401b7b:	49 83 c4 01          	add    r12,0x1
  401b7f:	4c 29 d0             	sub    rax,r10
  401b82:	48 c1 e0 0a          	shl    rax,0xa
  401b86:	48 01 c6             	add    rsi,rax
  401b89:	e8 32 f1 ff ff       	call   400cc0 <argon2_g>
  401b8e:	4c 39 64 24 40       	cmp    QWORD PTR [rsp+0x40],r12
  401b93:	c5 fb 10 0d 2d 95 01 	vmovsd xmm1,QWORD PTR [rip+0x1952d]        # 41b0c8 <BLAKE2B_IV+0xc8>
  401b9a:	00 
  401b9b:	0f 84 1f ff ff ff    	je     401ac0 <argon2_transform_segment+0x330>
  401ba1:	48 8b 4c 24 48       	mov    rcx,QWORD PTR [rsp+0x48]
  401ba6:	c5 d1 57 ed          	vxorpd xmm5,xmm5,xmm5
  401baa:	4f 8d 0c 26          	lea    r9,[r14+r12*1]
  401bae:	48 8b 01             	mov    rax,QWORD PTR [rcx]
  401bb1:	48 b9 00 00 00 00 ff 	movabs rcx,0xffffffff00000000
  401bb8:	ff ff ff 
  401bbb:	48 21 cb             	and    rbx,rcx
  401bbe:	48 8b 4c 24 50       	mov    rcx,QWORD PTR [rsp+0x50]
  401bc3:	4c 01 e8             	add    rax,r13
  401bc6:	42 8b 04 38          	mov    eax,DWORD PTR [rax+r15*1]
  401bca:	48 8b 31             	mov    rsi,QWORD PTR [rcx]
  401bcd:	48 09 c3             	or     rbx,rax
  401bd0:	0f af c0             	imul   eax,eax
  401bd3:	4a 8d 3c 2e          	lea    rdi,[rsi+r13*1]
  401bd7:	49 81 c5 00 04 00 00 	add    r13,0x400
  401bde:	4a 8d 14 2e          	lea    rdx,[rsi+r13*1]
  401be2:	c4 e1 d3 2a c0       	vcvtsi2sd xmm0,xmm5,rax
  401be7:	c5 fb 59 44 24 58    	vmulsd xmm0,xmm0,QWORD PTR [rsp+0x58]
  401bed:	c5 f9 2f c1          	vcomisd xmm0,xmm1
  401bf1:	0f 82 51 ff ff ff    	jb     401b48 <argon2_transform_segment+0x3b8>
  401bf7:	48 b9 00 00 00 00 00 	movabs rcx,0x8000000000000000
  401bfe:	00 00 80 
  401c01:	c5 fb 5c c1          	vsubsd xmm0,xmm0,xmm1
  401c05:	c4 e1 fb 2c c0       	vcvttsd2si rax,xmm0
  401c0a:	48 31 c8             	xor    rax,rcx
  401c0d:	49 0f af c4          	imul   rax,r12
  401c11:	48 85 c0             	test   rax,rax
  401c14:	0f 89 40 ff ff ff    	jns    401b5a <argon2_transform_segment+0x3ca>
  401c1a:	49 89 c2             	mov    r10,rax
  401c1d:	83 e0 01             	and    eax,0x1
  401c20:	c5 c1 57 ff          	vxorpd xmm7,xmm7,xmm7
  401c24:	49 d1 ea             	shr    r10,1
  401c27:	49 09 c2             	or     r10,rax
  401c2a:	c4 c1 c3 2a c2       	vcvtsi2sd xmm0,xmm7,r10
  401c2f:	c5 fb 58 c0          	vaddsd xmm0,xmm0,xmm0
  401c33:	c5 fb 59 44 24 58    	vmulsd xmm0,xmm0,QWORD PTR [rsp+0x58]
  401c39:	c5 f9 2f c1          	vcomisd xmm0,xmm1
  401c3d:	0f 82 30 ff ff ff    	jb     401b73 <argon2_transform_segment+0x3e3>
  401c43:	48 b8 00 00 00 00 00 	movabs rax,0x8000000000000000
  401c4a:	00 00 80 
  401c4d:	c5 fb 5c c1          	vsubsd xmm0,xmm0,xmm1
  401c51:	c4 61 fb 2c d0       	vcvttsd2si r10,xmm0
  401c56:	49 31 c2             	xor    r10,rax
  401c59:	e9 1a ff ff ff       	jmp    401b78 <argon2_transform_segment+0x3e8>
  401c5e:	66 90                	xchg   ax,ax
  401c60:	48 8b 44 24 30       	mov    rax,QWORD PTR [rsp+0x30]
  401c65:	4e 8d 1c 30          	lea    r11,[rax+r14*1]
  401c69:	e9 b4 fd ff ff       	jmp    401a22 <argon2_transform_segment+0x292>
  401c6e:	66 90                	xchg   ax,ax
  401c70:	4c 89 f8             	mov    rax,r15
  401c73:	4c 89 f9             	mov    rcx,r15
  401c76:	c5 e9 57 d2          	vxorpd xmm2,xmm2,xmm2
  401c7a:	48 d1 e8             	shr    rax,1
  401c7d:	83 e1 01             	and    ecx,0x1
  401c80:	48 09 c8             	or     rax,rcx
  401c83:	c4 e1 eb 2a c0       	vcvtsi2sd xmm0,xmm2,rax
  401c88:	c5 fb 58 c0          	vaddsd xmm0,xmm0,xmm0
  401c8c:	e9 54 fb ff ff       	jmp    4017e5 <argon2_transform_segment+0x55>
  401c91:	0f 1f 80 00 00 00 00 	nop    DWORD PTR [rax+0x0]
  401c98:	4c 8b 74 24 58       	mov    r14,QWORD PTR [rsp+0x58]
  401c9d:	48 8b 54 24 28       	mov    rdx,QWORD PTR [rsp+0x28]
  401ca2:	4c 01 e0             	add    rax,r12
  401ca5:	4c 89 7c 24 08       	mov    QWORD PTR [rsp+0x8],r15
  401caa:	48 29 c8             	sub    rax,rcx
  401cad:	c5 fb 10 35 1b 94 01 	vmovsd xmm6,QWORD PTR [rip+0x1941b]        # 41b0d0 <BLAKE2B_IV+0xd0>
  401cb4:	00 
  401cb5:	4d 89 ef             	mov    r15,r13
  401cb8:	4c 89 4c 24 10       	mov    QWORD PTR [rsp+0x10],r9
  401cbd:	49 c1 e6 09          	shl    r14,0x9
  401cc1:	48 89 44 24 20       	mov    QWORD PTR [rsp+0x20],rax
  401cc6:	49 8d 43 ff          	lea    rax,[r11-0x1]
  401cca:	4d 89 e5             	mov    r13,r12
  401ccd:	4c 01 f2             	add    rdx,r14
  401cd0:	4d 8d 34 09          	lea    r14,[r9+rcx*1]
  401cd4:	48 89 44 24 30       	mov    QWORD PTR [rsp+0x30],rax
  401cd9:	48 b9 00 00 00 00 ff 	movabs rcx,0xffffffff00000000
  401ce0:	ff ff ff 
  401ce3:	49 c1 e6 0a          	shl    r14,0xa
  401ce7:	48 89 54 24 48       	mov    QWORD PTR [rsp+0x48],rdx
  401cec:	4d 89 f4             	mov    r12,r14
  401cef:	4c 89 5c 24 18       	mov    QWORD PTR [rsp+0x18],r11
  401cf4:	4d 89 d6             	mov    r14,r10
  401cf7:	c5 fb 11 74 24 58    	vmovsd QWORD PTR [rsp+0x58],xmm6
  401cfd:	e9 ce 00 00 00       	jmp    401dd0 <argon2_transform_segment+0x640>
  401d02:	66 0f 1f 44 00 00    	nop    WORD PTR [rax+rax*1+0x0]
  401d08:	31 d2                	xor    edx,edx
  401d0a:	44 89 c0             	mov    eax,r8d
  401d0d:	48 8b 74 24 08       	mov    rsi,QWORD PTR [rsp+0x8]
  401d12:	48 f7 74 24 38       	div    QWORD PTR [rsp+0x38]
  401d17:	48 0f af f2          	imul   rsi,rdx
  401d1b:	48 39 54 24 40       	cmp    QWORD PTR [rsp+0x40],rdx
  401d20:	0f 84 de 00 00 00    	je     401e04 <argon2_transform_segment+0x674>
  401d26:	4c 8b 5c 24 18       	mov    r11,QWORD PTR [rsp+0x18]
  401d2b:	4d 85 ed             	test   r13,r13
  401d2e:	4c 0f 44 5c 24 30    	cmove  r11,QWORD PTR [rsp+0x30]
  401d34:	0f af ff             	imul   edi,edi
  401d37:	c5 d9 57 e4          	vxorpd xmm4,xmm4,xmm4
  401d3b:	48 8b 44 24 50       	mov    rax,QWORD PTR [rsp+0x50]
  401d40:	49 8d 74 33 ff       	lea    rsi,[r11+rsi*1-0x1]
  401d45:	48 8b 00             	mov    rax,QWORD PTR [rax]
  401d48:	c4 e1 db 2a c7       	vcvtsi2sd xmm0,xmm4,rdi
  401d4d:	c5 fb 59 44 24 58    	vmulsd xmm0,xmm0,QWORD PTR [rsp+0x58]
  401d53:	4a 8d 14 20          	lea    rdx,[rax+r12*1]
  401d57:	c5 f9 2f c1          	vcomisd xmm0,xmm1
  401d5b:	0f 83 d7 00 00 00    	jae    401e38 <argon2_transform_segment+0x6a8>
  401d61:	c4 e1 fb 2c f8       	vcvttsd2si rdi,xmm0
  401d66:	49 0f af fb          	imul   rdi,r11
  401d6a:	48 85 ff             	test   rdi,rdi
  401d6d:	0f 88 e8 00 00 00    	js     401e5b <argon2_transform_segment+0x6cb>
  401d73:	c5 d9 57 e4          	vxorpd xmm4,xmm4,xmm4
  401d77:	c4 e1 db 2a c7       	vcvtsi2sd xmm0,xmm4,rdi
  401d7c:	c5 fb 59 44 24 58    	vmulsd xmm0,xmm0,QWORD PTR [rsp+0x58]
  401d82:	c5 f9 2f c1          	vcomisd xmm0,xmm1
  401d86:	0f 83 8c 00 00 00    	jae    401e18 <argon2_transform_segment+0x688>
  401d8c:	c4 e1 fb 2c f8       	vcvttsd2si rdi,xmm0
  401d91:	48 29 fe             	sub    rsi,rdi
  401d94:	4a 8d bc 20 00 fc ff 	lea    rdi,[rax+r12*1-0x400]
  401d9b:	ff 
  401d9c:	49 83 c5 01          	add    r13,0x1
  401da0:	49 81 c4 00 04 00 00 	add    r12,0x400
  401da7:	48 c1 e6 0a          	shl    rsi,0xa
  401dab:	48 01 c6             	add    rsi,rax
  401dae:	e8 0d ef ff ff       	call   400cc0 <argon2_g>
  401db3:	4c 3b 6c 24 20       	cmp    r13,QWORD PTR [rsp+0x20]
  401db8:	c5 fb 10 0d 08 93 01 	vmovsd xmm1,QWORD PTR [rip+0x19308]        # 41b0c8 <BLAKE2B_IV+0xc8>
  401dbf:	00 
  401dc0:	48 b9 00 00 00 00 ff 	movabs rcx,0xffffffff00000000
  401dc7:	ff ff ff 
  401dca:	0f 84 f0 fc ff ff    	je     401ac0 <argon2_transform_segment+0x330>
  401dd0:	48 8b 44 24 48       	mov    rax,QWORD PTR [rsp+0x48]
  401dd5:	4d 89 f8             	mov    r8,r15
  401dd8:	48 21 cb             	and    rbx,rcx
  401ddb:	49 21 c8             	and    r8,rcx
  401dde:	48 89 df             	mov    rdi,rbx
  401de1:	8b 00                	mov    eax,DWORD PTR [rax]
  401de3:	49 09 c0             	or     r8,rax
  401de6:	48 8b 44 24 28       	mov    rax,QWORD PTR [rsp+0x28]
  401deb:	4d 89 c7             	mov    r15,r8
  401dee:	8b 00                	mov    eax,DWORD PTR [rax]
  401df0:	48 09 c7             	or     rdi,rax
  401df3:	4d 85 f6             	test   r14,r14
  401df6:	48 89 fb             	mov    rbx,rdi
  401df9:	0f 85 09 ff ff ff    	jne    401d08 <argon2_transform_segment+0x578>
  401dff:	48 8b 74 24 10       	mov    rsi,QWORD PTR [rsp+0x10]
  401e04:	48 8b 44 24 30       	mov    rax,QWORD PTR [rsp+0x30]
  401e09:	4e 8d 1c 28          	lea    r11,[rax+r13*1]
  401e0d:	e9 22 ff ff ff       	jmp    401d34 <argon2_transform_segment+0x5a4>
  401e12:	66 0f 1f 44 00 00    	nop    WORD PTR [rax+rax*1+0x0]
  401e18:	49 b8 00 00 00 00 00 	movabs r8,0x8000000000000000
  401e1f:	00 00 80 
  401e22:	c5 fb 5c c1          	vsubsd xmm0,xmm0,xmm1
  401e26:	c4 e1 fb 2c f8       	vcvttsd2si rdi,xmm0
  401e2b:	4c 31 c7             	xor    rdi,r8
  401e2e:	e9 5e ff ff ff       	jmp    401d91 <argon2_transform_segment+0x601>
  401e33:	0f 1f 44 00 00       	nop    DWORD PTR [rax+rax*1+0x0]
  401e38:	49 b9 00 00 00 00 00 	movabs r9,0x8000000000000000
  401e3f:	00 00 80 
  401e42:	c5 fb 5c c1          	vsubsd xmm0,xmm0,xmm1
  401e46:	c4 e1 fb 2c f8       	vcvttsd2si rdi,xmm0
  401e4b:	4c 31 cf             	xor    rdi,r9
  401e4e:	49 0f af fb          	imul   rdi,r11
  401e52:	48 85 ff             	test   rdi,rdi
  401e55:	0f 89 18 ff ff ff    	jns    401d73 <argon2_transform_segment+0x5e3>
  401e5b:	49 89 fb             	mov    r11,rdi
  401e5e:	83 e7 01             	and    edi,0x1
  401e61:	c5 d1 57 ed          	vxorpd xmm5,xmm5,xmm5
  401e65:	49 d1 eb             	shr    r11,1
  401e68:	49 09 fb             	or     r11,rdi
  401e6b:	c4 c1 d3 2a c3       	vcvtsi2sd xmm0,xmm5,r11
  401e70:	c5 fb 58 c0          	vaddsd xmm0,xmm0,xmm0
  401e74:	e9 03 ff ff ff       	jmp    401d7c <argon2_transform_segment+0x5ec>
  401e79:	0f 1f 80 00 00 00 00 	nop    DWORD PTR [rax+0x0]

0000000000401e80 <tcp_init_communication>:
  401e80:	55                   	push   rbp
  401e81:	b8 10 00 00 00       	mov    eax,0x10
  401e86:	31 d2                	xor    edx,edx
  401e88:	be 01 00 00 00       	mov    esi,0x1
  401e8d:	c5 f9 6e c0          	vmovd  xmm0,eax
  401e91:	bf 02 00 00 00       	mov    edi,0x2
  401e96:	66 c7 05 31 c3 01 00 	mov    WORD PTR [rip+0x1c331],0x2        # 41e1d0 <tcp_servaddr>
  401e9d:	02 00 
  401e9f:	66 0f 38 f0 05 80 c2 	movbe  ax,WORD PTR [rip+0x1c280]        # 41e128 <port>
  401ea6:	01 00 
  401ea8:	c7 05 22 c3 01 00 00 	mov    DWORD PTR [rip+0x1c322],0x0        # 41e1d4 <tcp_servaddr+0x4>
  401eaf:	00 00 00 
  401eb2:	c4 e2 7d 58 c0       	vpbroadcastd ymm0,xmm0
  401eb7:	48 89 e5             	mov    rbp,rsp
  401eba:	c5 fd 7f 05 1e c3 01 	vmovdqa YMMWORD PTR [rip+0x1c31e],ymm0        # 41e1e0 <clientLens>
  401ec1:	00 
  401ec2:	66 89 05 09 c3 01 00 	mov    WORD PTR [rip+0x1c309],ax        # 41e1d2 <tcp_servaddr+0x2>
  401ec9:	c5 fd 7f 05 2f c3 01 	vmovdqa YMMWORD PTR [rip+0x1c32f],ymm0        # 41e200 <clientLens+0x20>
  401ed0:	00 
  401ed1:	c5 fd 7f 05 47 c3 01 	vmovdqa YMMWORD PTR [rip+0x1c347],ymm0        # 41e220 <clientLens+0x40>
  401ed8:	00 
  401ed9:	c5 fd 7f 05 5f c3 01 	vmovdqa YMMWORD PTR [rip+0x1c35f],ymm0        # 41e240 <clientLens+0x60>
  401ee0:	00 
  401ee1:	c5 fd 7f 05 77 c3 01 	vmovdqa YMMWORD PTR [rip+0x1c377],ymm0        # 41e260 <clientLens+0x80>
  401ee8:	00 
  401ee9:	c5 fd 7f 05 8f c3 01 	vmovdqa YMMWORD PTR [rip+0x1c38f],ymm0        # 41e280 <clientLens+0xa0>
  401ef0:	00 
  401ef1:	c5 fd 7f 05 a7 c3 01 	vmovdqa YMMWORD PTR [rip+0x1c3a7],ymm0        # 41e2a0 <clientLens+0xc0>
  401ef8:	00 
  401ef9:	c5 fd 7f 05 bf c3 01 	vmovdqa YMMWORD PTR [rip+0x1c3bf],ymm0        # 41e2c0 <clientLens+0xe0>
  401f00:	00 
  401f01:	c5 f8 77             	vzeroupper
  401f04:	e8 87 e6 ff ff       	call   400590 <socket@plt>
  401f09:	83 f8 ff             	cmp    eax,0xffffffff
  401f0c:	89 05 ce c8 01 00    	mov    DWORD PTR [rip+0x1c8ce],eax        # 41e7e0 <listening_socket>
  401f12:	0f 84 c6 e6 ff ff    	je     4005de <tcp_init_communication.cold+0x1e>
  401f18:	bf f0 89 41 00       	mov    edi,0x4189f0
  401f1d:	e8 ae e4 ff ff       	call   4003d0 <puts@plt>
  401f22:	8b 3d b8 c8 01 00    	mov    edi,DWORD PTR [rip+0x1c8b8]        # 41e7e0 <listening_socket>
  401f28:	41 b8 04 00 00 00    	mov    r8d,0x4
  401f2e:	b9 24 e1 41 00       	mov    ecx,0x41e124
  401f33:	ba 0f 00 00 00       	mov    edx,0xf
  401f38:	be 01 00 00 00       	mov    esi,0x1
  401f3d:	e8 be e4 ff ff       	call   400400 <setsockopt@plt>
  401f42:	83 f8 ff             	cmp    eax,0xffffffff
  401f45:	0f 84 84 e6 ff ff    	je     4005cf <tcp_init_communication.cold+0xf>
  401f4b:	bf 60 8a 41 00       	mov    edi,0x418a60
  401f50:	e8 7b e4 ff ff       	call   4003d0 <puts@plt>
  401f55:	8b 3d 85 c8 01 00    	mov    edi,DWORD PTR [rip+0x1c885]        # 41e7e0 <listening_socket>
  401f5b:	41 b8 04 00 00 00    	mov    r8d,0x4
  401f61:	b9 20 e1 41 00       	mov    ecx,0x41e120
  401f66:	ba 02 00 00 00       	mov    edx,0x2
  401f6b:	be 01 00 00 00       	mov    esi,0x1
  401f70:	e8 8b e4 ff ff       	call   400400 <setsockopt@plt>
  401f75:	83 f8 ff             	cmp    eax,0xffffffff
  401f78:	0f 84 42 e6 ff ff    	je     4005c0 <tcp_init_communication.cold>
  401f7e:	bf d0 8a 41 00       	mov    edi,0x418ad0
  401f83:	e8 48 e4 ff ff       	call   4003d0 <puts@plt>
  401f88:	8b 3d 52 c8 01 00    	mov    edi,DWORD PTR [rip+0x1c852]        # 41e7e0 <listening_socket>
  401f8e:	ba 10 00 00 00       	mov    edx,0x10
  401f93:	be d0 e1 41 00       	mov    esi,0x41e1d0
  401f98:	e8 53 e5 ff ff       	call   4004f0 <bind@plt>
  401f9d:	83 f8 ff             	cmp    eax,0xffffffff
  401fa0:	75 0a                	jne    401fac <tcp_init_communication+0x12c>
  401fa2:	e8 f9 e3 ff ff       	call   4003a0 <__errno_location@plt>
  401fa7:	83 38 0d             	cmp    DWORD PTR [rax],0xd
  401faa:	75 31                	jne    401fdd <tcp_init_communication+0x15d>
  401fac:	bf 50 8b 41 00       	mov    edi,0x418b50
  401fb1:	e8 1a e4 ff ff       	call   4003d0 <puts@plt>
  401fb6:	8b 3d 24 c8 01 00    	mov    edi,DWORD PTR [rip+0x1c824]        # 41e7e0 <listening_socket>
  401fbc:	be 32 00 00 00       	mov    esi,0x32
  401fc1:	e8 1a e5 ff ff       	call   4004e0 <listen@plt>
  401fc6:	83 f8 ff             	cmp    eax,0xffffffff
  401fc9:	0f 84 1e e6 ff ff    	je     4005ed <tcp_init_communication.cold+0x2d>
  401fcf:	bf b0 8b 41 00       	mov    edi,0x418bb0
  401fd4:	e8 f7 e3 ff ff       	call   4003d0 <puts@plt>
  401fd9:	31 c0                	xor    eax,eax
  401fdb:	5d                   	pop    rbp
  401fdc:	c3                   	ret
  401fdd:	bf 10 8b 41 00       	mov    edi,0x418b10
  401fe2:	e8 e9 e3 ff ff       	call   4003d0 <puts@plt>
  401fe7:	bf 48 8b 41 00       	mov    edi,0x418b48
  401fec:	e8 2f e5 ff ff       	call   400520 <perror@plt>
  401ff1:	8b 3d e9 c7 01 00    	mov    edi,DWORD PTR [rip+0x1c7e9]        # 41e7e0 <listening_socket>
  401ff7:	85 ff                	test   edi,edi
  401ff9:	75 07                	jne    402002 <tcp_init_communication+0x182>
  401ffb:	b8 01 00 00 00       	mov    eax,0x1
  402000:	5d                   	pop    rbp
  402001:	c3                   	ret
  402002:	e8 59 e4 ff ff       	call   400460 <close@plt>
  402007:	eb f2                	jmp    401ffb <tcp_init_communication+0x17b>
  402009:	0f 1f 80 00 00 00 00 	nop    DWORD PTR [rax+0x0]

0000000000402010 <tcp_onboard_new_client>:
  402010:	53                   	push   rbx
  402011:	48 83 ec 30          	sub    rsp,0x30
  402015:	8b 3d c5 c7 01 00    	mov    edi,DWORD PTR [rip+0x1c7c5]        # 41e7e0 <listening_socket>
  40201b:	48 8d 54 24 0c       	lea    rdx,[rsp+0xc]
  402020:	48 8d 74 24 10       	lea    rsi,[rsp+0x10]
  402025:	c7 44 24 0c 10 00 00 	mov    DWORD PTR [rsp+0xc],0x10
  40202c:	00 
  40202d:	e8 fe e4 ff ff       	call   400530 <accept@plt>
  402032:	48 8b 1d ff c0 01 00 	mov    rbx,QWORD PTR [rip+0x1c0ff]        # 41e138 <curr_free_user_ix>
  402039:	c5 f9 6f 44 24 10    	vmovdqa xmm0,XMMWORD PTR [rsp+0x10]
  40203f:	48 89 da             	mov    rdx,rbx
  402042:	89 04 9d e0 e6 41 00 	mov    DWORD PTR [rbx*4+0x41e6e0],eax
  402049:	48 89 de             	mov    rsi,rbx
  40204c:	48 c1 e2 04          	shl    rdx,0x4
  402050:	83 f8 ff             	cmp    eax,0xffffffff
  402053:	c5 f9 7f 82 e0 e2 41 	vmovdqa XMMWORD PTR [rdx+0x41e2e0],xmm0
  40205a:	00 
  40205b:	8b 54 24 0c          	mov    edx,DWORD PTR [rsp+0xc]
  40205f:	89 14 9d e0 e1 41 00 	mov    DWORD PTR [rbx*4+0x41e1e0],edx
  402066:	74 57                	je     4020bf <tcp_onboard_new_client+0xaf>
  402068:	bf 18 8c 41 00       	mov    edi,0x418c18
  40206d:	31 c0                	xor    eax,eax
  40206f:	e8 bc e3 ff ff       	call   400430 <printf@plt>
  402074:	be 01 00 00 00       	mov    esi,0x1
  402079:	48 8d 4c 24 20       	lea    rcx,[rsp+0x20]
  40207e:	c5 f9 6f 05 5a 90 01 	vmovdqa xmm0,XMMWORD PTR [rip+0x1905a]        # 41b0e0 <BLAKE2B_IV+0xe0>
  402085:	00 
  402086:	8b 3c 9d e0 e6 41 00 	mov    edi,DWORD PTR [rbx*4+0x41e6e0]
  40208d:	41 b8 10 00 00 00    	mov    r8d,0x10
  402093:	ba 14 00 00 00       	mov    edx,0x14
  402098:	c5 f9 7f 44 24 20    	vmovdqa XMMWORD PTR [rsp+0x20],xmm0
  40209e:	e8 5d e3 ff ff       	call   400400 <setsockopt@plt>
  4020a3:	48 89 de             	mov    rsi,rbx
  4020a6:	83 f8 ff             	cmp    eax,0xffffffff
  4020a9:	74 31                	je     4020dc <tcp_onboard_new_client+0xcc>
  4020ab:	bf 90 8c 41 00       	mov    edi,0x418c90
  4020b0:	31 c0                	xor    eax,eax
  4020b2:	e8 79 e3 ff ff       	call   400430 <printf@plt>
  4020b7:	31 c0                	xor    eax,eax
  4020b9:	48 83 c4 30          	add    rsp,0x30
  4020bd:	5b                   	pop    rbx
  4020be:	c3                   	ret
  4020bf:	bf e0 8b 41 00       	mov    edi,0x418be0
  4020c4:	31 c0                	xor    eax,eax
  4020c6:	e8 65 e3 ff ff       	call   400430 <printf@plt>
  4020cb:	bf 48 8b 41 00       	mov    edi,0x418b48
  4020d0:	e8 4b e4 ff ff       	call   400520 <perror@plt>
  4020d5:	b8 01 00 00 00       	mov    eax,0x1
  4020da:	eb dd                	jmp    4020b9 <tcp_onboard_new_client+0xa9>
  4020dc:	bf 50 8c 41 00       	mov    edi,0x418c50
  4020e1:	31 c0                	xor    eax,eax
  4020e3:	e8 48 e3 ff ff       	call   400430 <printf@plt>
  4020e8:	bf 48 8b 41 00       	mov    edi,0x418b48
  4020ed:	e8 2e e4 ff ff       	call   400520 <perror@plt>
  4020f2:	8b 3c 9d e0 e6 41 00 	mov    edi,DWORD PTR [rbx*4+0x41e6e0]
  4020f9:	e8 62 e3 ff ff       	call   400460 <close@plt>
  4020fe:	eb d5                	jmp    4020d5 <tcp_onboard_new_client+0xc5>

0000000000402100 <ipc_onboard_new_client>:
  402100:	53                   	push   rbx
  402101:	31 f6                	xor    esi,esi
  402103:	31 d2                	xor    edx,edx
  402105:	48 83 ec 10          	sub    rsp,0x10
  402109:	8b 3d d1 c6 01 00    	mov    edi,DWORD PTR [rip+0x1c6d1]        # 41e7e0 <listening_socket>
  40210f:	e8 1c e4 ff ff       	call   400530 <accept@plt>
  402114:	48 8b 1d 1d c0 01 00 	mov    rbx,QWORD PTR [rip+0x1c01d]        # 41e138 <curr_free_user_ix>
  40211b:	83 f8 ff             	cmp    eax,0xffffffff
  40211e:	89 04 9d e0 e6 41 00 	mov    DWORD PTR [rbx*4+0x41e6e0],eax
  402125:	48 89 de             	mov    rsi,rbx
  402128:	74 54                	je     40217e <ipc_onboard_new_client+0x7e>
  40212a:	bf 28 8d 41 00       	mov    edi,0x418d28
  40212f:	31 c0                	xor    eax,eax
  402131:	e8 fa e2 ff ff       	call   400430 <printf@plt>
  402136:	c5 f9 6f 05 a2 8f 01 	vmovdqa xmm0,XMMWORD PTR [rip+0x18fa2]        # 41b0e0 <BLAKE2B_IV+0xe0>
  40213d:	00 
  40213e:	be 01 00 00 00       	mov    esi,0x1
  402143:	48 89 e1             	mov    rcx,rsp
  402146:	8b 3c 9d e0 e6 41 00 	mov    edi,DWORD PTR [rbx*4+0x41e6e0]
  40214d:	41 b8 10 00 00 00    	mov    r8d,0x10
  402153:	ba 14 00 00 00       	mov    edx,0x14
  402158:	c5 f9 7f 04 24       	vmovdqa XMMWORD PTR [rsp],xmm0
  40215d:	e8 9e e2 ff ff       	call   400400 <setsockopt@plt>
  402162:	48 89 de             	mov    rsi,rbx
  402165:	83 f8 ff             	cmp    eax,0xffffffff
  402168:	74 31                	je     40219b <ipc_onboard_new_client+0x9b>
  40216a:	bf 98 8d 41 00       	mov    edi,0x418d98
  40216f:	31 c0                	xor    eax,eax
  402171:	e8 ba e2 ff ff       	call   400430 <printf@plt>
  402176:	31 c0                	xor    eax,eax
  402178:	48 83 c4 10          	add    rsp,0x10
  40217c:	5b                   	pop    rbx
  40217d:	c3                   	ret
  40217e:	bf e8 8c 41 00       	mov    edi,0x418ce8
  402183:	31 c0                	xor    eax,eax
  402185:	e8 a6 e2 ff ff       	call   400430 <printf@plt>
  40218a:	bf 48 8b 41 00       	mov    edi,0x418b48
  40218f:	e8 8c e3 ff ff       	call   400520 <perror@plt>
  402194:	b8 01 00 00 00       	mov    eax,0x1
  402199:	eb dd                	jmp    402178 <ipc_onboard_new_client+0x78>
  40219b:	bf 58 8d 41 00       	mov    edi,0x418d58
  4021a0:	31 c0                	xor    eax,eax
  4021a2:	e8 89 e2 ff ff       	call   400430 <printf@plt>
  4021a7:	bf 48 8b 41 00       	mov    edi,0x418b48
  4021ac:	e8 6f e3 ff ff       	call   400520 <perror@plt>
  4021b1:	8b 3c 9d e0 e6 41 00 	mov    edi,DWORD PTR [rbx*4+0x41e6e0]
  4021b8:	e8 a3 e2 ff ff       	call   400460 <close@plt>
  4021bd:	eb d5                	jmp    402194 <ipc_onboard_new_client+0x94>
  4021bf:	90                   	nop

00000000004021c0 <ipc_transmit_payload>:
  4021c0:	53                   	push   rbx
  4021c1:	48 89 fb             	mov    rbx,rdi
  4021c4:	8b 3c bd e0 e6 41 00 	mov    edi,DWORD PTR [rdi*4+0x41e6e0]
  4021cb:	b9 00 40 00 00       	mov    ecx,0x4000
  4021d0:	e8 4b e2 ff ff       	call   400420 <send@plt>
  4021d5:	48 83 f8 ff          	cmp    rax,0xffffffffffffffff
  4021d9:	74 05                	je     4021e0 <ipc_transmit_payload+0x20>
  4021db:	31 c0                	xor    eax,eax
  4021dd:	5b                   	pop    rbx
  4021de:	c3                   	ret
  4021df:	90                   	nop
  4021e0:	e8 bb e1 ff ff       	call   4003a0 <__errno_location@plt>
  4021e5:	48 89 de             	mov    rsi,rbx
  4021e8:	83 38 20             	cmp    DWORD PTR [rax],0x20
  4021eb:	74 13                	je     402200 <ipc_transmit_payload+0x40>
  4021ed:	bf 28 8e 41 00       	mov    edi,0x418e28
  4021f2:	31 c0                	xor    eax,eax
  4021f4:	e8 37 e2 ff ff       	call   400430 <printf@plt>
  4021f9:	b8 01 00 00 00       	mov    eax,0x1
  4021fe:	5b                   	pop    rbx
  4021ff:	c3                   	ret
  402200:	bf f8 8d 41 00       	mov    edi,0x418df8
  402205:	31 c0                	xor    eax,eax
  402207:	e8 24 e2 ff ff       	call   400430 <printf@plt>
  40220c:	31 c0                	xor    eax,eax
  40220e:	eb cd                	jmp    4021dd <ipc_transmit_payload+0x1d>

0000000000402210 <tcp_receive_payload>:
  402210:	53                   	push   rbx
  402211:	48 89 fb             	mov    rbx,rdi
  402214:	31 c9                	xor    ecx,ecx
  402216:	48 83 ec 10          	sub    rsp,0x10
  40221a:	8b 3c bd e0 e6 41 00 	mov    edi,DWORD PTR [rdi*4+0x41e6e0]
  402221:	e8 5a e1 ff ff       	call   400380 <recv@plt>
  402226:	48 85 c0             	test   rax,rax
  402229:	48 89 c2             	mov    rdx,rax
  40222c:	78 12                	js     402240 <tcp_receive_payload+0x30>
  40222e:	74 38                	je     402268 <tcp_receive_payload+0x58>
  402230:	48 83 c4 10          	add    rsp,0x10
  402234:	48 89 d0             	mov    rax,rdx
  402237:	5b                   	pop    rbx
  402238:	c3                   	ret
  402239:	0f 1f 80 00 00 00 00 	nop    DWORD PTR [rax+0x0]
  402240:	48 89 44 24 08       	mov    QWORD PTR [rsp+0x8],rax
  402245:	e8 56 e1 ff ff       	call   4003a0 <__errno_location@plt>
  40224a:	48 89 de             	mov    rsi,rbx
  40224d:	83 38 0b             	cmp    DWORD PTR [rax],0xb
  402250:	75 38                	jne    40228a <tcp_receive_payload+0x7a>
  402252:	bf 90 8e 41 00       	mov    edi,0x418e90
  402257:	31 c0                	xor    eax,eax
  402259:	e8 d2 e1 ff ff       	call   400430 <printf@plt>
  40225e:	48 8b 54 24 08       	mov    rdx,QWORD PTR [rsp+0x8]
  402263:	eb cb                	jmp    402230 <tcp_receive_payload+0x20>
  402265:	0f 1f 00             	nop    DWORD PTR [rax]
  402268:	48 89 44 24 08       	mov    QWORD PTR [rsp+0x8],rax
  40226d:	48 89 de             	mov    rsi,rbx
  402270:	bf c0 8e 41 00       	mov    edi,0x418ec0
  402275:	31 c0                	xor    eax,eax
  402277:	e8 b4 e1 ff ff       	call   400430 <printf@plt>
  40227c:	48 8b 54 24 08       	mov    rdx,QWORD PTR [rsp+0x8]
  402281:	48 83 c4 10          	add    rsp,0x10
  402285:	5b                   	pop    rbx
  402286:	48 89 d0             	mov    rax,rdx
  402289:	c3                   	ret
  40228a:	bf 60 8e 41 00       	mov    edi,0x418e60
  40228f:	31 c0                	xor    eax,eax
  402291:	e8 9a e1 ff ff       	call   400430 <printf@plt>
  402296:	bf 48 8b 41 00       	mov    edi,0x418b48
  40229b:	e8 80 e2 ff ff       	call   400520 <perror@plt>
  4022a0:	48 8b 54 24 08       	mov    rdx,QWORD PTR [rsp+0x8]
  4022a5:	eb 89                	jmp    402230 <tcp_receive_payload+0x20>
  4022a7:	66 0f 1f 84 00 00 00 	nop    WORD PTR [rax+rax*1+0x0]
  4022ae:	00 00 

00000000004022b0 <ipc_init_communication>:
  4022b0:	55                   	push   rbp
  4022b1:	31 d2                	xor    edx,edx
  4022b3:	be 01 00 00 00       	mov    esi,0x1
  4022b8:	bf 01 00 00 00       	mov    edi,0x1
  4022bd:	48 89 e5             	mov    rbp,rsp
  4022c0:	e8 cb e2 ff ff       	call   400590 <socket@plt>
  4022c5:	83 f8 ff             	cmp    eax,0xffffffff
  4022c8:	89 05 12 c5 01 00    	mov    DWORD PTR [rip+0x1c512],eax        # 41e7e0 <listening_socket>
  4022ce:	0f 84 28 e3 ff ff    	je     4005fc <ipc_init_communication.cold>
  4022d4:	bf 58 8f 41 00       	mov    edi,0x418f58
  4022d9:	e8 f2 e0 ff ff       	call   4003d0 <puts@plt>
  4022de:	bf 8f 8f 41 00       	mov    edi,0x418f8f
  4022e3:	e8 c8 e0 ff ff       	call   4003b0 <unlink@plt>
  4022e8:	c5 f9 ef c0          	vpxor  xmm0,xmm0,xmm0
  4022ec:	8b 3d ee c4 01 00    	mov    edi,DWORD PTR [rip+0x1c4ee]        # 41e7e0 <listening_socket>
  4022f2:	66 c7 05 65 be 01 00 	mov    WORD PTR [rip+0x1be65],0x1        # 41e160 <ipc_servaddr>
  4022f9:	01 00 
  4022fb:	c5 fe 7f 05 95 be 01 	vmovdqu YMMWORD PTR [rip+0x1be95],ymm0        # 41e198 <ipc_servaddr+0x38>
  402302:	00 
  402303:	ba 6e 00 00 00       	mov    edx,0x6e
  402308:	be 60 e1 41 00       	mov    esi,0x41e160
  40230d:	48 b8 74 61 2e 73 6f 	movabs rax,0x6b636f732e6174
  402314:	63 6b 00 
  402317:	c5 fe 7f 05 59 be 01 	vmovdqu YMMWORD PTR [rip+0x1be59],ymm0        # 41e178 <ipc_servaddr+0x18>
  40231e:	00 
  40231f:	c5 fe 7f 05 87 be 01 	vmovdqu YMMWORD PTR [rip+0x1be87],ymm0        # 41e1ae <ipc_servaddr+0x4e>
  402326:	00 
  402327:	c5 f9 6f 05 c1 8d 01 	vmovdqa xmm0,XMMWORD PTR [rip+0x18dc1]        # 41b0f0 <BLAKE2B_IV+0xf0>
  40232e:	00 
  40232f:	c5 fa 7f 05 2b be 01 	vmovdqu XMMWORD PTR [rip+0x1be2b],xmm0        # 41e162 <ipc_servaddr+0x2>
  402336:	00 
  402337:	48 89 05 32 be 01 00 	mov    QWORD PTR [rip+0x1be32],rax        # 41e170 <ipc_servaddr+0x10>
  40233e:	c5 f8 77             	vzeroupper
  402341:	e8 aa e1 ff ff       	call   4004f0 <bind@plt>
  402346:	83 f8 ff             	cmp    eax,0xffffffff
  402349:	0f 84 e7 e2 ff ff    	je     400636 <ipc_init_communication.cold+0x3a>
  40234f:	bf d8 8f 41 00       	mov    edi,0x418fd8
  402354:	e8 77 e0 ff ff       	call   4003d0 <puts@plt>
  402359:	8b 3d 81 c4 01 00    	mov    edi,DWORD PTR [rip+0x1c481]        # 41e7e0 <listening_socket>
  40235f:	be 32 00 00 00       	mov    esi,0x32
  402364:	e8 77 e1 ff ff       	call   4004e0 <listen@plt>
  402369:	83 f8 ff             	cmp    eax,0xffffffff
  40236c:	0f 84 b8 e2 ff ff    	je     40062a <ipc_init_communication.cold+0x2e>
  402372:	bf 40 90 41 00       	mov    edi,0x419040
  402377:	e8 54 e0 ff ff       	call   4003d0 <puts@plt>
  40237c:	bf 70 90 41 00       	mov    edi,0x419070
  402381:	e8 4a e0 ff ff       	call   4003d0 <puts@plt>
  402386:	31 c0                	xor    eax,eax
  402388:	5d                   	pop    rbp
  402389:	c3                   	ret
  40238a:	66 0f 1f 44 00 00    	nop    WORD PTR [rax+rax*1+0x0]

0000000000402390 <tcp_transmit_payload>:
  402390:	53                   	push   rbx
  402391:	48 89 fb             	mov    rbx,rdi
  402394:	8b 3c bd e0 e6 41 00 	mov    edi,DWORD PTR [rdi*4+0x41e6e0]
  40239b:	b9 00 40 00 00       	mov    ecx,0x4000
  4023a0:	e8 7b e0 ff ff       	call   400420 <send@plt>
  4023a5:	48 83 f8 ff          	cmp    rax,0xffffffffffffffff
  4023a9:	74 05                	je     4023b0 <tcp_transmit_payload+0x20>
  4023ab:	31 c0                	xor    eax,eax
  4023ad:	5b                   	pop    rbx
  4023ae:	c3                   	ret
  4023af:	90                   	nop
  4023b0:	e8 eb df ff ff       	call   4003a0 <__errno_location@plt>
  4023b5:	48 89 de             	mov    rsi,rbx
  4023b8:	83 38 20             	cmp    DWORD PTR [rax],0x20
  4023bb:	75 10                	jne    4023cd <tcp_transmit_payload+0x3d>
  4023bd:	bf f8 8d 41 00       	mov    edi,0x418df8
  4023c2:	31 c0                	xor    eax,eax
  4023c4:	e8 67 e0 ff ff       	call   400430 <printf@plt>
  4023c9:	31 c0                	xor    eax,eax
  4023cb:	eb e0                	jmp    4023ad <tcp_transmit_payload+0x1d>
  4023cd:	bf b0 90 41 00       	mov    edi,0x4190b0
  4023d2:	31 c0                	xor    eax,eax
  4023d4:	e8 57 e0 ff ff       	call   400430 <printf@plt>
  4023d9:	bf 48 8b 41 00       	mov    edi,0x418b48
  4023de:	e8 3d e1 ff ff       	call   400520 <perror@plt>
  4023e3:	b8 01 00 00 00       	mov    eax,0x1
  4023e8:	5b                   	pop    rbx
  4023e9:	c3                   	ret
  4023ea:	66 0f 1f 44 00 00    	nop    WORD PTR [rax+rax*1+0x0]

00000000004023f0 <ipc_receive_payload>:
  4023f0:	53                   	push   rbx
  4023f1:	48 89 fb             	mov    rbx,rdi
  4023f4:	31 c9                	xor    ecx,ecx
  4023f6:	48 83 ec 10          	sub    rsp,0x10
  4023fa:	8b 3c bd e0 e6 41 00 	mov    edi,DWORD PTR [rdi*4+0x41e6e0]
  402401:	e8 7a df ff ff       	call   400380 <recv@plt>
  402406:	48 85 c0             	test   rax,rax
  402409:	48 89 c2             	mov    rdx,rax
  40240c:	78 12                	js     402420 <ipc_receive_payload+0x30>
  40240e:	74 38                	je     402448 <ipc_receive_payload+0x58>
  402410:	48 83 c4 10          	add    rsp,0x10
  402414:	48 89 d0             	mov    rax,rdx
  402417:	5b                   	pop    rbx
  402418:	c3                   	ret
  402419:	0f 1f 80 00 00 00 00 	nop    DWORD PTR [rax+0x0]
  402420:	48 89 44 24 08       	mov    QWORD PTR [rsp+0x8],rax
  402425:	e8 76 df ff ff       	call   4003a0 <__errno_location@plt>
  40242a:	48 89 de             	mov    rsi,rbx
  40242d:	83 38 0b             	cmp    DWORD PTR [rax],0xb
  402430:	75 31                	jne    402463 <ipc_receive_payload+0x73>
  402432:	bf 20 91 41 00       	mov    edi,0x419120
  402437:	31 c0                	xor    eax,eax
  402439:	e8 f2 df ff ff       	call   400430 <printf@plt>
  40243e:	48 8b 54 24 08       	mov    rdx,QWORD PTR [rsp+0x8]
  402443:	eb cb                	jmp    402410 <ipc_receive_payload+0x20>
  402445:	0f 1f 00             	nop    DWORD PTR [rax]
  402448:	48 89 44 24 08       	mov    QWORD PTR [rsp+0x8],rax
  40244d:	48 89 de             	mov    rsi,rbx
  402450:	bf c0 8e 41 00       	mov    edi,0x418ec0
  402455:	31 c0                	xor    eax,eax
  402457:	e8 d4 df ff ff       	call   400430 <printf@plt>
  40245c:	48 8b 54 24 08       	mov    rdx,QWORD PTR [rsp+0x8]
  402461:	eb ad                	jmp    402410 <ipc_receive_payload+0x20>
  402463:	bf e8 90 41 00       	mov    edi,0x4190e8
  402468:	31 c0                	xor    eax,eax
  40246a:	e8 c1 df ff ff       	call   400430 <printf@plt>
  40246f:	bf 48 8b 41 00       	mov    edi,0x418b48
  402474:	e8 a7 e0 ff ff       	call   400520 <perror@plt>
  402479:	48 8b 54 24 08       	mov    rdx,QWORD PTR [rsp+0x8]
  40247e:	eb 90                	jmp    402410 <ipc_receive_payload+0x20>

0000000000402480 <bigint_create_from_u32.constprop.1>:
  402480:	40 f6 c6 07          	test   sil,0x7
  402484:	53                   	push   rbx
  402485:	75 39                	jne    4024c0 <bigint_create_from_u32.constprop.1+0x40>
  402487:	8d 46 bf             	lea    eax,[rsi-0x41]
  40248a:	3d 3f 34 b4 ff       	cmp    eax,0xffb4343f
  40248f:	77 2f                	ja     4024c0 <bigint_create_from_u32.constprop.1+0x40>
  402491:	89 77 08             	mov    DWORD PTR [rdi+0x8],esi
  402494:	48 89 fb             	mov    rbx,rdi
  402497:	c1 ee 03             	shr    esi,0x3
  40249a:	bf 01 00 00 00       	mov    edi,0x1
  40249f:	e8 dc df ff ff       	call   400480 <calloc@plt>
  4024a4:	c7 43 0c 00 00 00 00 	mov    DWORD PTR [rbx+0xc],0x0
  4024ab:	48 85 c0             	test   rax,rax
  4024ae:	48 89 03             	mov    QWORD PTR [rbx],rax
  4024b1:	0f 84 8b e1 ff ff    	je     400642 <bigint_create_from_u32.constprop.1.cold>
  4024b7:	c7 00 00 00 00 00    	mov    DWORD PTR [rax],0x0
  4024bd:	5b                   	pop    rbx
  4024be:	c3                   	ret
  4024bf:	90                   	nop
  4024c0:	bf 58 91 41 00       	mov    edi,0x419158
  4024c5:	e8 06 df ff ff       	call   4003d0 <puts@plt>
  4024ca:	bf 98 91 41 00       	mov    edi,0x419198
  4024cf:	31 c0                	xor    eax,eax
  4024d1:	e8 5a df ff ff       	call   400430 <printf@plt>
  4024d6:	bf 01 00 00 00       	mov    edi,0x1
  4024db:	e8 60 e0 ff ff       	call   400540 <exit@plt>

00000000004024e0 <bigint_create_from_u32.constprop.2>:
  4024e0:	40 f6 c6 07          	test   sil,0x7
  4024e4:	53                   	push   rbx
  4024e5:	75 49                	jne    402530 <bigint_create_from_u32.constprop.2+0x50>
  4024e7:	8d 46 bf             	lea    eax,[rsi-0x41]
  4024ea:	3d 3f 34 b4 ff       	cmp    eax,0xffb4343f
  4024ef:	77 3f                	ja     402530 <bigint_create_from_u32.constprop.2+0x50>
  4024f1:	89 77 08             	mov    DWORD PTR [rdi+0x8],esi
  4024f4:	48 89 fb             	mov    rbx,rdi
  4024f7:	c1 ee 03             	shr    esi,0x3
  4024fa:	bf 01 00 00 00       	mov    edi,0x1
  4024ff:	e8 7c df ff ff       	call   400480 <calloc@plt>
  402504:	c7 43 0c 00 00 00 00 	mov    DWORD PTR [rbx+0xc],0x0
  40250b:	48 85 c0             	test   rax,rax
  40250e:	48 89 03             	mov    QWORD PTR [rbx],rax
  402511:	0f 84 3f e1 ff ff    	je     400656 <bigint_create_from_u32.constprop.2.cold>
  402517:	c7 00 01 00 00 00    	mov    DWORD PTR [rax],0x1
  40251d:	c7 43 0c 01 00 00 00 	mov    DWORD PTR [rbx+0xc],0x1
  402524:	5b                   	pop    rbx
  402525:	c3                   	ret
  402526:	66 2e 0f 1f 84 00 00 	cs nop WORD PTR [rax+rax*1+0x0]
  40252d:	00 00 00 
  402530:	bf 58 91 41 00       	mov    edi,0x419158
  402535:	e8 96 de ff ff       	call   4003d0 <puts@plt>
  40253a:	bf 98 91 41 00       	mov    edi,0x419198
  40253f:	31 c0                	xor    eax,eax
  402541:	e8 ea de ff ff       	call   400430 <printf@plt>
  402546:	bf 01 00 00 00       	mov    edi,0x1
  40254b:	e8 f0 df ff ff       	call   400540 <exit@plt>

0000000000402550 <blake2b_f>:
  402550:	55                   	push   rbp
  402551:	49 89 fb             	mov    r11,rdi
  402554:	48 89 d0             	mov    rax,rdx
  402557:	48 89 e5             	mov    rbp,rsp
  40255a:	41 57                	push   r15
  40255c:	41 bf 00 aa 41 00    	mov    r15d,0x41aa00
  402562:	41 56                	push   r14
  402564:	41 55                	push   r13
  402566:	49 bd 2b f8 94 fe 72 	movabs r13,0x3c6ef372fe94f82b
  40256d:	f3 6e 3c 
  402570:	41 54                	push   r12
  402572:	49 89 f4             	mov    r12,rsi
  402575:	48 be 08 c9 bc f3 67 	movabs rsi,0x6a09e667f3bcc908
  40257c:	e6 09 6a 
  40257f:	53                   	push   rbx
  402580:	48 83 e4 e0          	and    rsp,0xffffffffffffffe0
  402584:	48 83 ec 68          	sub    rsp,0x68
  402588:	48 8b 17             	mov    rdx,QWORD PTR [rdi]
  40258b:	4c 8b 4f 08          	mov    r9,QWORD PTR [rdi+0x8]
  40258f:	4c 8b 47 10          	mov    r8,QWORD PTR [rdi+0x10]
  402593:	48 8b 7f 18          	mov    rdi,QWORD PTR [rdi+0x18]
  402597:	48 89 54 24 e8       	mov    QWORD PTR [rsp-0x18],rdx
  40259c:	48 89 d3             	mov    rbx,rdx
  40259f:	49 8b 53 20          	mov    rdx,QWORD PTR [r11+0x20]
  4025a3:	4c 89 4c 24 f0       	mov    QWORD PTR [rsp-0x10],r9
  4025a8:	4d 8b 4b 28          	mov    r9,QWORD PTR [r11+0x28]
  4025ac:	4c 89 44 24 f8       	mov    QWORD PTR [rsp-0x8],r8
  4025b1:	4d 8b 43 30          	mov    r8,QWORD PTR [r11+0x30]
  4025b5:	49 89 d2             	mov    r10,rdx
  4025b8:	48 89 3c 24          	mov    QWORD PTR [rsp],rdi
  4025bc:	49 8b 7b 38          	mov    rdi,QWORD PTR [r11+0x38]
  4025c0:	48 89 54 24 08       	mov    QWORD PTR [rsp+0x8],rdx
  4025c5:	48 ba d1 82 e6 ad 7f 	movabs rdx,0x510e527fade682d1
  4025cc:	52 0e 51 
  4025cf:	4c 89 4c 24 10       	mov    QWORD PTR [rsp+0x10],r9
  4025d4:	48 31 d0             	xor    rax,rdx
  4025d7:	48 ba 6b bd 41 fb ab 	movabs rdx,0x1f83d9abfb41bd6b
  4025de:	d9 83 1f 
  4025e1:	4c 89 44 24 18       	mov    QWORD PTR [rsp+0x18],r8
  4025e6:	48 89 7c 24 20       	mov    QWORD PTR [rsp+0x20],rdi
  4025eb:	0f b6 f9             	movzx  edi,cl
  4025ee:	48 8b 4c 24 20       	mov    rcx,QWORD PTR [rsp+0x20]
  4025f3:	48 f7 df             	neg    rdi
  4025f6:	4c 89 6c 24 98       	mov    QWORD PTR [rsp-0x68],r13
  4025fb:	4c 8b 4c 24 f0       	mov    r9,QWORD PTR [rsp-0x10]
  402600:	48 31 d7             	xor    rdi,rdx
  402603:	48 8b 54 24 10       	mov    rdx,QWORD PTR [rsp+0x10]
  402608:	48 89 4c 24 b0       	mov    QWORD PTR [rsp-0x50],rcx
  40260d:	48 b9 f1 36 1d 5f 3a 	movabs rcx,0xa54ff53a5f1d36f1
  402614:	f5 4f a5 
  402617:	4c 8b 44 24 f8       	mov    r8,QWORD PTR [rsp-0x8]
  40261c:	4c 8b 74 24 18       	mov    r14,QWORD PTR [rsp+0x18]
  402621:	48 89 4c 24 a0       	mov    QWORD PTR [rsp-0x60],rcx
  402626:	48 b9 79 21 7e 13 19 	movabs rcx,0x5be0cd19137e2179
  40262d:	cd e0 5b 
  402630:	48 89 54 24 a8       	mov    QWORD PTR [rsp-0x58],rdx
  402635:	48 8b 14 24          	mov    rdx,QWORD PTR [rsp]
  402639:	4c 89 5c 24 88       	mov    QWORD PTR [rsp-0x78],r11
  40263e:	48 89 54 24 e0       	mov    QWORD PTR [rsp-0x20],rdx
  402643:	4c 8b 5c 24 e0       	mov    r11,QWORD PTR [rsp-0x20]
  402648:	48 ba 1f 6c 3e 2b 8c 	movabs rdx,0x9b05688c2b3e6c1f
  40264f:	68 05 9b 
  402652:	48 89 54 24 d8       	mov    QWORD PTR [rsp-0x28],rdx
  402657:	48 89 4c 24 b8       	mov    QWORD PTR [rsp-0x48],rcx
  40265c:	48 b9 3b a7 ca 84 85 	movabs rcx,0xbb67ae8584caa73b
  402663:	ae 67 bb 
  402666:	66 2e 0f 1f 84 00 00 	cs nop WORD PTR [rax+rax*1+0x0]
  40266d:	00 00 00 
  402670:	4d 8b 2f             	mov    r13,QWORD PTR [r15]
  402673:	4b 8b 14 ec          	mov    rdx,QWORD PTR [r12+r13*8]
  402677:	4d 8b 6f 08          	mov    r13,QWORD PTR [r15+0x8]
  40267b:	4c 01 d2             	add    rdx,r10
  40267e:	48 01 d3             	add    rbx,rdx
  402681:	4b 8b 14 ec          	mov    rdx,QWORD PTR [r12+r13*8]
  402685:	48 31 d8             	xor    rax,rbx
  402688:	c4 e3 fb f0 c0 20    	rorx   rax,rax,0x20
  40268e:	48 01 c6             	add    rsi,rax
  402691:	49 31 f2             	xor    r10,rsi
  402694:	c4 43 fb f0 d2 18    	rorx   r10,r10,0x18
  40269a:	4c 01 d2             	add    rdx,r10
  40269d:	48 01 d3             	add    rbx,rdx
  4026a0:	48 8b 54 24 d8       	mov    rdx,QWORD PTR [rsp-0x28]
  4026a5:	48 31 d8             	xor    rax,rbx
  4026a8:	c4 e3 fb f0 c0 10    	rorx   rax,rax,0x10
  4026ae:	48 01 c6             	add    rsi,rax
  4026b1:	48 89 44 24 c8       	mov    QWORD PTR [rsp-0x38],rax
  4026b6:	49 31 f2             	xor    r10,rsi
  4026b9:	48 89 74 24 c0       	mov    QWORD PTR [rsp-0x40],rsi
  4026be:	49 8b 77 10          	mov    rsi,QWORD PTR [r15+0x10]
  4026c2:	c4 43 fb f0 d2 3f    	rorx   r10,r10,0x3f
  4026c8:	4c 89 54 24 90       	mov    QWORD PTR [rsp-0x70],r10
  4026cd:	4c 8b 54 24 a8       	mov    r10,QWORD PTR [rsp-0x58]
  4026d2:	4d 03 14 f4          	add    r10,QWORD PTR [r12+rsi*8]
  4026d6:	4d 01 ca             	add    r10,r9
  4026d9:	4d 8b 4f 18          	mov    r9,QWORD PTR [r15+0x18]
  4026dd:	4c 31 d2             	xor    rdx,r10
  4026e0:	c4 e3 fb f0 f2 20    	rorx   rsi,rdx,0x20
  4026e6:	48 8b 54 24 a8       	mov    rdx,QWORD PTR [rsp-0x58]
  4026eb:	48 01 f1             	add    rcx,rsi
  4026ee:	4f 8b 2c cc          	mov    r13,QWORD PTR [r12+r9*8]
  4026f2:	48 31 ca             	xor    rdx,rcx
  4026f5:	c4 e3 fb f0 d2 18    	rorx   rdx,rdx,0x18
  4026fb:	49 01 d5             	add    r13,rdx
  4026fe:	4f 8d 4c 15 00       	lea    r9,[r13+r10*1+0x0]
  402703:	4c 31 ce             	xor    rsi,r9
  402706:	c4 e3 fb f0 f6 10    	rorx   rsi,rsi,0x10
  40270c:	48 01 f1             	add    rcx,rsi
  40270f:	48 89 74 24 d8       	mov    QWORD PTR [rsp-0x28],rsi
  402714:	49 8b 77 28          	mov    rsi,QWORD PTR [r15+0x28]
  402718:	48 31 ca             	xor    rdx,rcx
  40271b:	48 89 4c 24 d0       	mov    QWORD PTR [rsp-0x30],rcx
  402720:	49 8b 4f 20          	mov    rcx,QWORD PTR [r15+0x20]
  402724:	c4 e3 fb f0 d2 3f    	rorx   rdx,rdx,0x3f
  40272a:	4d 8b 2c cc          	mov    r13,QWORD PTR [r12+rcx*8]
  40272e:	4d 01 f5             	add    r13,r14
  402731:	4b 8d 4c 05 00       	lea    rcx,[r13+r8*1+0x0]
  402736:	4c 8b 44 24 98       	mov    r8,QWORD PTR [rsp-0x68]
  40273b:	4c 8b 6c 24 b0       	mov    r13,QWORD PTR [rsp-0x50]
  402740:	48 31 cf             	xor    rdi,rcx
  402743:	c4 e3 fb f0 ff 20    	rorx   rdi,rdi,0x20
  402749:	4d 8d 14 38          	lea    r10,[r8+rdi*1]
  40274d:	4d 8b 04 f4          	mov    r8,QWORD PTR [r12+rsi*8]
  402751:	4d 31 d6             	xor    r14,r10
  402754:	c4 43 fb f0 f6 18    	rorx   r14,r14,0x18
  40275a:	4d 01 f0             	add    r8,r14
  40275d:	49 01 c8             	add    r8,rcx
  402760:	49 8b 4f 30          	mov    rcx,QWORD PTR [r15+0x30]
  402764:	4c 31 c7             	xor    rdi,r8
  402767:	4d 03 2c cc          	add    r13,QWORD PTR [r12+rcx*8]
  40276b:	c4 e3 fb f0 ff 10    	rorx   rdi,rdi,0x10
  402771:	49 01 fa             	add    r10,rdi
  402774:	48 89 7c 24 e0       	mov    QWORD PTR [rsp-0x20],rdi
  402779:	4d 01 dd             	add    r13,r11
  40277c:	4c 8b 5c 24 b8       	mov    r11,QWORD PTR [rsp-0x48]
  402781:	48 8b 4c 24 b0       	mov    rcx,QWORD PTR [rsp-0x50]
  402786:	4d 31 d6             	xor    r14,r10
  402789:	c4 43 fb f0 f6 3f    	rorx   r14,r14,0x3f
  40278f:	4d 31 eb             	xor    r11,r13
  402792:	c4 c3 fb f0 f3 20    	rorx   rsi,r11,0x20
  402798:	4c 8b 5c 24 a0       	mov    r11,QWORD PTR [rsp-0x60]
  40279d:	49 8d 3c 33          	lea    rdi,[r11+rsi*1]
  4027a1:	4d 8b 5f 38          	mov    r11,QWORD PTR [r15+0x38]
  4027a5:	48 31 f9             	xor    rcx,rdi
  4027a8:	4b 8b 04 dc          	mov    rax,QWORD PTR [r12+r11*8]
  4027ac:	c4 e3 fb f0 c9 18    	rorx   rcx,rcx,0x18
  4027b2:	48 01 c8             	add    rax,rcx
  4027b5:	4e 8d 1c 28          	lea    r11,[rax+r13*1]
  4027b9:	4d 8b 6f 40          	mov    r13,QWORD PTR [r15+0x40]
  4027bd:	4c 31 de             	xor    rsi,r11
  4027c0:	4b 03 1c ec          	add    rbx,QWORD PTR [r12+r13*8]
  4027c4:	c4 e3 fb f0 f6 10    	rorx   rsi,rsi,0x10
  4027ca:	4d 8b 6f 48          	mov    r13,QWORD PTR [r15+0x48]
  4027ce:	48 01 f7             	add    rdi,rsi
  4027d1:	48 01 d3             	add    rbx,rdx
  4027d4:	48 31 f9             	xor    rcx,rdi
  4027d7:	48 31 de             	xor    rsi,rbx
  4027da:	4b 03 1c ec          	add    rbx,QWORD PTR [r12+r13*8]
  4027de:	c4 e3 fb f0 c9 3f    	rorx   rcx,rcx,0x3f
  4027e4:	c4 e3 fb f0 f6 20    	rorx   rsi,rsi,0x20
  4027ea:	49 01 f2             	add    r10,rsi
  4027ed:	4c 31 d2             	xor    rdx,r10
  4027f0:	c4 e3 fb f0 d2 18    	rorx   rdx,rdx,0x18
  4027f6:	48 01 d3             	add    rbx,rdx
  4027f9:	48 31 de             	xor    rsi,rbx
  4027fc:	c4 e3 fb f0 c6 10    	rorx   rax,rsi,0x10
  402802:	48 89 44 24 b8       	mov    QWORD PTR [rsp-0x48],rax
  402807:	4c 01 d0             	add    rax,r10
  40280a:	48 8b 74 24 c0       	mov    rsi,QWORD PTR [rsp-0x40]
  40280f:	48 31 c2             	xor    rdx,rax
  402812:	48 89 44 24 98       	mov    QWORD PTR [rsp-0x68],rax
  402817:	4c 8b 54 24 90       	mov    r10,QWORD PTR [rsp-0x70]
  40281c:	c4 e3 fb f0 c2 3f    	rorx   rax,rdx,0x3f
  402822:	49 8b 57 50          	mov    rdx,QWORD PTR [r15+0x50]
  402826:	48 89 44 24 a8       	mov    QWORD PTR [rsp-0x58],rax
  40282b:	48 8b 44 24 c8       	mov    rax,QWORD PTR [rsp-0x38]
  402830:	4d 03 0c d4          	add    r9,QWORD PTR [r12+rdx*8]
  402834:	49 8b 57 58          	mov    rdx,QWORD PTR [r15+0x58]
  402838:	4d 01 f1             	add    r9,r14
  40283b:	4c 31 c8             	xor    rax,r9
  40283e:	4d 03 0c d4          	add    r9,QWORD PTR [r12+rdx*8]
  402842:	49 8b 57 60          	mov    rdx,QWORD PTR [r15+0x60]
  402846:	c4 e3 fb f0 c0 20    	rorx   rax,rax,0x20
  40284c:	48 01 c7             	add    rdi,rax
  40284f:	49 31 fe             	xor    r14,rdi
  402852:	4d 03 04 d4          	add    r8,QWORD PTR [r12+rdx*8]
  402856:	48 8b 54 24 d8       	mov    rdx,QWORD PTR [rsp-0x28]
  40285b:	c4 43 fb f0 f6 18    	rorx   r14,r14,0x18
  402861:	4d 01 f1             	add    r9,r14
  402864:	49 01 c8             	add    r8,rcx
  402867:	4c 31 c8             	xor    rax,r9
  40286a:	4c 31 c2             	xor    rdx,r8
  40286d:	c4 e3 fb f0 c0 10    	rorx   rax,rax,0x10
  402873:	4c 8d 2c 07          	lea    r13,[rdi+rax*1]
  402877:	49 8b 7f 68          	mov    rdi,QWORD PTR [r15+0x68]
  40287b:	c4 e3 fb f0 d2 20    	rorx   rdx,rdx,0x20
  402881:	48 01 d6             	add    rsi,rdx
  402884:	4d 31 ee             	xor    r14,r13
  402887:	4c 89 6c 24 a0       	mov    QWORD PTR [rsp-0x60],r13
  40288c:	4d 8b 6f 78          	mov    r13,QWORD PTR [r15+0x78]
  402890:	48 31 f1             	xor    rcx,rsi
  402893:	4d 03 04 fc          	add    r8,QWORD PTR [r12+rdi*8]
  402897:	c4 43 fb f0 f6 3f    	rorx   r14,r14,0x3f
  40289d:	c4 e3 fb f0 c9 18    	rorx   rcx,rcx,0x18
  4028a3:	49 01 c8             	add    r8,rcx
  4028a6:	4c 31 c2             	xor    rdx,r8
  4028a9:	c4 e3 fb f0 fa 10    	rorx   rdi,rdx,0x10
  4028af:	48 01 fe             	add    rsi,rdi
  4028b2:	48 89 7c 24 d8       	mov    QWORD PTR [rsp-0x28],rdi
  4028b7:	48 8b 7c 24 e0       	mov    rdi,QWORD PTR [rsp-0x20]
  4028bc:	48 31 f1             	xor    rcx,rsi
  4028bf:	c4 e3 fb f0 d1 3f    	rorx   rdx,rcx,0x3f
  4028c5:	49 8b 4f 70          	mov    rcx,QWORD PTR [r15+0x70]
  4028c9:	48 89 54 24 b0       	mov    QWORD PTR [rsp-0x50],rdx
  4028ce:	4d 03 1c cc          	add    r11,QWORD PTR [r12+rcx*8]
  4028d2:	48 8b 4c 24 d0       	mov    rcx,QWORD PTR [rsp-0x30]
  4028d7:	49 83 ef 80          	sub    r15,0xffffffffffffff80
  4028db:	4d 01 d3             	add    r11,r10
  4028de:	4c 31 df             	xor    rdi,r11
  4028e1:	4f 03 1c ec          	add    r11,QWORD PTR [r12+r13*8]
  4028e5:	c4 e3 fb f0 ff 20    	rorx   rdi,rdi,0x20
  4028eb:	48 01 f9             	add    rcx,rdi
  4028ee:	49 31 ca             	xor    r10,rcx
  4028f1:	c4 43 fb f0 d2 18    	rorx   r10,r10,0x18
  4028f7:	4d 01 d3             	add    r11,r10
  4028fa:	4c 31 df             	xor    rdi,r11
  4028fd:	c4 e3 fb f0 ff 10    	rorx   rdi,rdi,0x10
  402903:	48 01 f9             	add    rcx,rdi
  402906:	49 31 ca             	xor    r10,rcx
  402909:	49 81 ff 00 b0 41 00 	cmp    r15,0x41b000
  402910:	c4 43 fb f0 d2 3f    	rorx   r10,r10,0x3f
  402916:	0f 85 54 fd ff ff    	jne    402670 <blake2b_f+0x120>
  40291c:	48 89 5c 24 e8       	mov    QWORD PTR [rsp-0x18],rbx
  402921:	4c 8b 6c 24 98       	mov    r13,QWORD PTR [rsp-0x68]
  402926:	4d 89 df             	mov    r15,r11
  402929:	48 8b 5c 24 b8       	mov    rbx,QWORD PTR [rsp-0x48]
  40292e:	4c 8b 5c 24 88       	mov    r11,QWORD PTR [rsp-0x78]
  402933:	48 89 44 24 48       	mov    QWORD PTR [rsp+0x48],rax
  402938:	48 8b 44 24 a0       	mov    rax,QWORD PTR [rsp-0x60]
  40293d:	4c 89 6c 24 38       	mov    QWORD PTR [rsp+0x38],r13
  402942:	48 89 5c 24 60       	mov    QWORD PTR [rsp+0x60],rbx
  402947:	48 8b 54 24 d8       	mov    rdx,QWORD PTR [rsp-0x28]
  40294c:	48 89 44 24 40       	mov    QWORD PTR [rsp+0x40],rax
  402951:	48 8b 5c 24 a8       	mov    rbx,QWORD PTR [rsp-0x58]
  402956:	4c 89 3c 24          	mov    QWORD PTR [rsp],r15
  40295a:	48 8b 44 24 b0       	mov    rax,QWORD PTR [rsp-0x50]
  40295f:	4c 89 4c 24 f0       	mov    QWORD PTR [rsp-0x10],r9
  402964:	4c 89 44 24 f8       	mov    QWORD PTR [rsp-0x8],r8
  402969:	c5 fd 6f 44 24 e8    	vmovdqa ymm0,YMMWORD PTR [rsp-0x18]
  40296f:	48 89 74 24 28       	mov    QWORD PTR [rsp+0x28],rsi
  402974:	48 89 4c 24 30       	mov    QWORD PTR [rsp+0x30],rcx
  402979:	c5 fd ef 44 24 28    	vpxor  ymm0,ymm0,YMMWORD PTR [rsp+0x28]
  40297f:	c4 c1 7d ef 03       	vpxor  ymm0,ymm0,YMMWORD PTR [r11]
  402984:	48 89 5c 24 10       	mov    QWORD PTR [rsp+0x10],rbx
  402989:	4c 89 74 24 18       	mov    QWORD PTR [rsp+0x18],r14
  40298e:	48 89 54 24 50       	mov    QWORD PTR [rsp+0x50],rdx
  402993:	48 89 44 24 20       	mov    QWORD PTR [rsp+0x20],rax
  402998:	48 89 7c 24 58       	mov    QWORD PTR [rsp+0x58],rdi
  40299d:	4c 89 54 24 08       	mov    QWORD PTR [rsp+0x8],r10
  4029a2:	c4 c1 7e 7f 03       	vmovdqu YMMWORD PTR [r11],ymm0
  4029a7:	c5 fd 6f 44 24 48    	vmovdqa ymm0,YMMWORD PTR [rsp+0x48]
  4029ad:	c5 fd ef 44 24 08    	vpxor  ymm0,ymm0,YMMWORD PTR [rsp+0x8]
  4029b3:	c4 c1 7d ef 43 20    	vpxor  ymm0,ymm0,YMMWORD PTR [r11+0x20]
  4029b9:	c4 c1 7e 7f 43 20    	vmovdqu YMMWORD PTR [r11+0x20],ymm0
  4029bf:	c5 f8 77             	vzeroupper
  4029c2:	48 8d 65 d8          	lea    rsp,[rbp-0x28]
  4029c6:	5b                   	pop    rbx
  4029c7:	41 5c                	pop    r12
  4029c9:	41 5d                	pop    r13
  4029cb:	41 5e                	pop    r14
  4029cd:	41 5f                	pop    r15
  4029cf:	5d                   	pop    rbp
  4029d0:	c3                   	ret
  4029d1:	0f 1f 40 00          	nop    DWORD PTR [rax+0x0]
  4029d5:	66 66 2e 0f 1f 84 00 	data16 cs nop WORD PTR [rax+rax*1+0x0]
  4029dc:	00 00 00 00 

00000000004029e0 <blake2b_init.constprop.0>:
  4029e0:	55                   	push   rbp
  4029e1:	c5 f8 57 c0          	vxorps xmm0,xmm0,xmm0
  4029e5:	48 89 e5             	mov    rbp,rsp
  4029e8:	41 57                	push   r15
  4029ea:	49 89 ff             	mov    r15,rdi
  4029ed:	41 56                	push   r14
  4029ef:	41 55                	push   r13
  4029f1:	41 54                	push   r12
  4029f3:	53                   	push   rbx
  4029f4:	48 83 ec 68          	sub    rsp,0x68
  4029f8:	48 85 f6             	test   rsi,rsi
  4029fb:	48 89 74 24 18       	mov    QWORD PTR [rsp+0x18],rsi
  402a00:	48 89 54 24 08       	mov    QWORD PTR [rsp+0x8],rdx
  402a05:	0f 88 dd 01 00 00    	js     402be8 <blake2b_init.constprop.0+0x208>
  402a0b:	c4 e1 fb 2a c6       	vcvtsi2sd xmm0,xmm0,rsi
  402a10:	c5 fb 59 05 e8 86 01 	vmulsd xmm0,xmm0,QWORD PTR [rip+0x186e8]        # 41b100 <BLAKE2B_IV+0x100>
  402a17:	00 
  402a18:	c5 f1 57 c9          	vxorpd xmm1,xmm1,xmm1
  402a1c:	c4 e3 79 0b c0 0a    	vroundsd xmm0,xmm0,xmm0,0xa
  402a22:	c5 fb 58 c1          	vaddsd xmm0,xmm0,xmm1
  402a26:	c5 fb 10 0d 9a 86 01 	vmovsd xmm1,QWORD PTR [rip+0x1869a]        # 41b0c8 <BLAKE2B_IV+0xc8>
  402a2d:	00 
  402a2e:	c5 f9 2f c1          	vcomisd xmm0,xmm1
  402a32:	0f 83 98 01 00 00    	jae    402bd0 <blake2b_init.constprop.0+0x1f0>
  402a38:	c4 61 fb 2c e8       	vcvttsd2si r13,xmm0
  402a3d:	4a 8d 04 ed 00 00 00 	lea    rax,[r13*8+0x0]
  402a44:	00 
  402a45:	bf 01 00 00 00       	mov    edi,0x1
  402a4a:	4d 8d 65 ff          	lea    r12,[r13-0x1]
  402a4e:	48 89 c6             	mov    rsi,rax
  402a51:	48 89 04 24          	mov    QWORD PTR [rsp],rax
  402a55:	e8 26 da ff ff       	call   400480 <calloc@plt>
  402a5a:	4d 85 ed             	test   r13,r13
  402a5d:	48 89 c3             	mov    rbx,rax
  402a60:	4a 8d 04 e0          	lea    rax,[rax+r12*8]
  402a64:	48 89 44 24 10       	mov    QWORD PTR [rsp+0x10],rax
  402a69:	0f 84 fb 01 00 00    	je     402c6a <blake2b_init.constprop.0+0x28a>
  402a6f:	45 31 f6             	xor    r14d,r14d
  402a72:	eb 3e                	jmp    402ab2 <blake2b_init.constprop.0+0xd2>
  402a74:	0f 1f 40 00          	nop    DWORD PTR [rax+0x0]
  402a78:	c4 c1 7e 6f 07       	vmovdqu ymm0,YMMWORD PTR [r15]
  402a7d:	49 83 c6 01          	add    r14,0x1
  402a81:	49 83 ef 80          	sub    r15,0xffffffffffffff80
  402a85:	c5 fe 7f 00          	vmovdqu YMMWORD PTR [rax],ymm0
  402a89:	c4 c1 7e 6f 47 a0    	vmovdqu ymm0,YMMWORD PTR [r15-0x60]
  402a8f:	c5 fe 7f 40 20       	vmovdqu YMMWORD PTR [rax+0x20],ymm0
  402a94:	c4 c1 7e 6f 47 c0    	vmovdqu ymm0,YMMWORD PTR [r15-0x40]
  402a9a:	c5 fe 7f 40 40       	vmovdqu YMMWORD PTR [rax+0x40],ymm0
  402a9f:	c4 c1 7e 6f 47 e0    	vmovdqu ymm0,YMMWORD PTR [r15-0x20]
  402aa5:	4d 39 f5             	cmp    r13,r14
  402aa8:	c5 fe 7f 40 60       	vmovdqu YMMWORD PTR [rax+0x60],ymm0
  402aad:	74 51                	je     402b00 <blake2b_init.constprop.0+0x120>
  402aaf:	c5 f8 77             	vzeroupper
  402ab2:	be 80 00 00 00       	mov    esi,0x80
  402ab7:	bf 01 00 00 00       	mov    edi,0x1
  402abc:	e8 bf d9 ff ff       	call   400480 <calloc@plt>
  402ac1:	4d 39 e6             	cmp    r14,r12
  402ac4:	4a 89 04 f3          	mov    QWORD PTR [rbx+r14*8],rax
  402ac8:	75 ae                	jne    402a78 <blake2b_init.constprop.0+0x98>
  402aca:	48 8b 4c 24 18       	mov    rcx,QWORD PTR [rsp+0x18]
  402acf:	be 80 00 00 00       	mov    esi,0x80
  402ad4:	83 e1 7f             	and    ecx,0x7f
  402ad7:	48 0f 44 ce          	cmove  rcx,rsi
  402adb:	83 f9 08             	cmp    ecx,0x8
  402ade:	89 ce                	mov    esi,ecx
  402ae0:	0f 83 2a 01 00 00    	jae    402c10 <blake2b_init.constprop.0+0x230>
  402ae6:	f6 c1 04             	test   cl,0x4
  402ae9:	0f 85 e7 01 00 00    	jne    402cd6 <blake2b_init.constprop.0+0x2f6>
  402aef:	85 c9                	test   ecx,ecx
  402af1:	0f 85 51 01 00 00    	jne    402c48 <blake2b_init.constprop.0+0x268>
  402af7:	66 0f 1f 84 00 00 00 	nop    WORD PTR [rax+rax*1+0x0]
  402afe:	00 00 
  402b00:	c5 fd 6f 05 f8 84 01 	vmovdqa ymm0,YMMWORD PTR [rip+0x184f8]        # 41b000 <BLAKE2B_IV>
  402b07:	00 
  402b08:	45 31 ff             	xor    r15d,r15d
  402b0b:	49 83 fd 01          	cmp    r13,0x1
  402b0f:	48 b8 48 c9 bd f2 67 	movabs rax,0x6a09e667f2bdc948
  402b16:	e6 09 6a 
  402b19:	c5 fe 7f 44 24 20    	vmovdqu YMMWORD PTR [rsp+0x20],ymm0
  402b1f:	c5 fd 6f 05 f9 84 01 	vmovdqa ymm0,YMMWORD PTR [rip+0x184f9]        # 41b020 <BLAKE2B_IV+0x20>
  402b26:	00 
  402b27:	48 89 44 24 20       	mov    QWORD PTR [rsp+0x20],rax
  402b2c:	c5 fe 7f 44 24 40    	vmovdqu YMMWORD PTR [rsp+0x40],ymm0
  402b32:	0f 84 d0 00 00 00    	je     402c08 <blake2b_init.constprop.0+0x228>
  402b38:	c5 f8 77             	vzeroupper
  402b3b:	0f 1f 44 00 00       	nop    DWORD PTR [rax+rax*1+0x0]
  402b40:	49 83 c7 01          	add    r15,0x1
  402b44:	31 c9                	xor    ecx,ecx
  402b46:	48 8d 7c 24 20       	lea    rdi,[rsp+0x20]
  402b4b:	4a 8b 74 fb f8       	mov    rsi,QWORD PTR [rbx+r15*8-0x8]
  402b50:	4c 89 fa             	mov    rdx,r15
  402b53:	48 c1 e2 07          	shl    rdx,0x7
  402b57:	e8 f4 f9 ff ff       	call   402550 <blake2b_f>
  402b5c:	4d 39 e7             	cmp    r15,r12
  402b5f:	75 df                	jne    402b40 <blake2b_init.constprop.0+0x160>
  402b61:	48 8b 44 24 10       	mov    rax,QWORD PTR [rsp+0x10]
  402b66:	48 8b 54 24 18       	mov    rdx,QWORD PTR [rsp+0x18]
  402b6b:	b9 01 00 00 00       	mov    ecx,0x1
  402b70:	49 89 dc             	mov    r12,rbx
  402b73:	48 8d 7c 24 20       	lea    rdi,[rsp+0x20]
  402b78:	48 8b 30             	mov    rsi,QWORD PTR [rax]
  402b7b:	e8 d0 f9 ff ff       	call   402550 <blake2b_f>
  402b80:	c5 fe 6f 44 24 20    	vmovdqu ymm0,YMMWORD PTR [rsp+0x20]
  402b86:	48 8b 44 24 08       	mov    rax,QWORD PTR [rsp+0x8]
  402b8b:	4c 8b 2c 24          	mov    r13,QWORD PTR [rsp]
  402b8f:	c5 fe 7f 00          	vmovdqu YMMWORD PTR [rax],ymm0
  402b93:	c5 fe 6f 44 24 40    	vmovdqu ymm0,YMMWORD PTR [rsp+0x40]
  402b99:	49 01 dd             	add    r13,rbx
  402b9c:	c5 fe 7f 40 20       	vmovdqu YMMWORD PTR [rax+0x20],ymm0
  402ba1:	c5 f8 77             	vzeroupper
  402ba4:	0f 1f 40 00          	nop    DWORD PTR [rax+0x0]
  402ba8:	49 8b 3c 24          	mov    rdi,QWORD PTR [r12]
  402bac:	49 83 c4 08          	add    r12,0x8
  402bb0:	e8 bb d7 ff ff       	call   400370 <free@plt>
  402bb5:	4d 39 e5             	cmp    r13,r12
  402bb8:	75 ee                	jne    402ba8 <blake2b_init.constprop.0+0x1c8>
  402bba:	48 83 c4 68          	add    rsp,0x68
  402bbe:	48 89 df             	mov    rdi,rbx
  402bc1:	5b                   	pop    rbx
  402bc2:	41 5c                	pop    r12
  402bc4:	41 5d                	pop    r13
  402bc6:	41 5e                	pop    r14
  402bc8:	41 5f                	pop    r15
  402bca:	5d                   	pop    rbp
  402bcb:	e9 a0 d7 ff ff       	jmp    400370 <free@plt>
  402bd0:	c5 fb 5c c1          	vsubsd xmm0,xmm0,xmm1
  402bd4:	c4 61 fb 2c e8       	vcvttsd2si r13,xmm0
  402bd9:	49 0f ba fd 3f       	btc    r13,0x3f
  402bde:	e9 5a fe ff ff       	jmp    402a3d <blake2b_init.constprop.0+0x5d>
  402be3:	0f 1f 44 00 00       	nop    DWORD PTR [rax+rax*1+0x0]
  402be8:	48 89 f1             	mov    rcx,rsi
  402beb:	48 89 f0             	mov    rax,rsi
  402bee:	48 d1 e8             	shr    rax,1
  402bf1:	83 e1 01             	and    ecx,0x1
  402bf4:	48 09 c8             	or     rax,rcx
  402bf7:	c4 e1 fb 2a c0       	vcvtsi2sd xmm0,xmm0,rax
  402bfc:	c5 fb 58 c0          	vaddsd xmm0,xmm0,xmm0
  402c00:	e9 0b fe ff ff       	jmp    402a10 <blake2b_init.constprop.0+0x30>
  402c05:	0f 1f 00             	nop    DWORD PTR [rax]
  402c08:	c5 f8 77             	vzeroupper
  402c0b:	e9 51 ff ff ff       	jmp    402b61 <blake2b_init.constprop.0+0x181>
  402c10:	89 ce                	mov    esi,ecx
  402c12:	49 8b 7c 37 f8       	mov    rdi,QWORD PTR [r15+rsi*1-0x8]
  402c17:	48 89 7c 30 f8       	mov    QWORD PTR [rax+rsi*1-0x8],rdi
  402c1c:	8d 71 ff             	lea    esi,[rcx-0x1]
  402c1f:	83 fe 08             	cmp    esi,0x8
  402c22:	0f 82 d8 fe ff ff    	jb     402b00 <blake2b_init.constprop.0+0x120>
  402c28:	83 e6 f8             	and    esi,0xfffffff8
  402c2b:	31 c9                	xor    ecx,ecx
  402c2d:	89 cf                	mov    edi,ecx
  402c2f:	83 c1 08             	add    ecx,0x8
  402c32:	4d 8b 04 3f          	mov    r8,QWORD PTR [r15+rdi*1]
  402c36:	39 f1                	cmp    ecx,esi
  402c38:	4c 89 04 38          	mov    QWORD PTR [rax+rdi*1],r8
  402c3c:	72 ef                	jb     402c2d <blake2b_init.constprop.0+0x24d>
  402c3e:	e9 bd fe ff ff       	jmp    402b00 <blake2b_init.constprop.0+0x120>
  402c43:	0f 1f 44 00 00       	nop    DWORD PTR [rax+rax*1+0x0]
  402c48:	41 0f b6 37          	movzx  esi,BYTE PTR [r15]
  402c4c:	f6 c1 02             	test   cl,0x2
  402c4f:	40 88 30             	mov    BYTE PTR [rax],sil
  402c52:	0f 84 a8 fe ff ff    	je     402b00 <blake2b_init.constprop.0+0x120>
  402c58:	89 c9                	mov    ecx,ecx
  402c5a:	41 0f b7 54 0f fe    	movzx  edx,WORD PTR [r15+rcx*1-0x2]
  402c60:	66 89 54 08 fe       	mov    WORD PTR [rax+rcx*1-0x2],dx
  402c65:	e9 96 fe ff ff       	jmp    402b00 <blake2b_init.constprop.0+0x120>
  402c6a:	48 8b 54 24 18       	mov    rdx,QWORD PTR [rsp+0x18]
  402c6f:	48 8d 7c 24 20       	lea    rdi,[rsp+0x20]
  402c74:	b9 01 00 00 00       	mov    ecx,0x1
  402c79:	c5 fd 6f 05 7f 83 01 	vmovdqa ymm0,YMMWORD PTR [rip+0x1837f]        # 41b000 <BLAKE2B_IV>
  402c80:	00 
  402c81:	48 b8 48 c9 bd f2 67 	movabs rax,0x6a09e667f2bdc948
  402c88:	e6 09 6a 
  402c8b:	c5 fe 7f 44 24 20    	vmovdqu YMMWORD PTR [rsp+0x20],ymm0
  402c91:	c5 fd 6f 05 87 83 01 	vmovdqa ymm0,YMMWORD PTR [rip+0x18387]        # 41b020 <BLAKE2B_IV+0x20>
  402c98:	00 
  402c99:	48 89 44 24 20       	mov    QWORD PTR [rsp+0x20],rax
  402c9e:	48 8b 44 24 10       	mov    rax,QWORD PTR [rsp+0x10]
  402ca3:	c5 fe 7f 44 24 40    	vmovdqu YMMWORD PTR [rsp+0x40],ymm0
  402ca9:	48 8b 30             	mov    rsi,QWORD PTR [rax]
  402cac:	c5 f8 77             	vzeroupper
  402caf:	e8 9c f8 ff ff       	call   402550 <blake2b_f>
  402cb4:	c5 fe 6f 44 24 20    	vmovdqu ymm0,YMMWORD PTR [rsp+0x20]
  402cba:	48 8b 44 24 08       	mov    rax,QWORD PTR [rsp+0x8]
  402cbf:	c5 fe 7f 00          	vmovdqu YMMWORD PTR [rax],ymm0
  402cc3:	c5 fe 6f 44 24 40    	vmovdqu ymm0,YMMWORD PTR [rsp+0x40]
  402cc9:	c5 fe 7f 40 20       	vmovdqu YMMWORD PTR [rax+0x20],ymm0
  402cce:	c5 f8 77             	vzeroupper
  402cd1:	e9 e4 fe ff ff       	jmp    402bba <blake2b_init.constprop.0+0x1da>
  402cd6:	41 8b 0f             	mov    ecx,DWORD PTR [r15]
  402cd9:	89 08                	mov    DWORD PTR [rax],ecx
  402cdb:	41 8b 54 37 fc       	mov    edx,DWORD PTR [r15+rsi*1-0x4]
  402ce0:	89 54 30 fc          	mov    DWORD PTR [rax+rsi*1-0x4],edx
  402ce4:	e9 17 fe ff ff       	jmp    402b00 <blake2b_init.constprop.0+0x120>
  402ce9:	0f 1f 80 00 00 00 00 	nop    DWORD PTR [rax+0x0]

0000000000402cf0 <get_bigint_from_dat.constprop.0>:
  402cf0:	41 57                	push   r15
  402cf2:	41 56                	push   r14
  402cf4:	49 89 fe             	mov    r14,rdi
  402cf7:	bf 01 00 00 00       	mov    edi,0x1
  402cfc:	41 55                	push   r13
  402cfe:	41 54                	push   r12
  402d00:	53                   	push   rbx
  402d01:	89 f3                	mov    ebx,esi
  402d03:	be 10 00 00 00       	mov    esi,0x10
  402d08:	e8 73 d7 ff ff       	call   400480 <calloc@plt>
  402d0d:	be 40 06 00 00       	mov    esi,0x640
  402d12:	bf 01 00 00 00       	mov    edi,0x1
  402d17:	49 89 c4             	mov    r12,rax
  402d1a:	e8 61 d7 ff ff       	call   400480 <calloc@plt>
  402d1f:	49 c7 44 24 08 00 32 	mov    QWORD PTR [r12+0x8],0x3200
  402d26:	00 00 
  402d28:	48 85 c0             	test   rax,rax
  402d2b:	49 89 04 24          	mov    QWORD PTR [r12],rax
  402d2f:	0f 84 35 d9 ff ff    	je     40066a <get_bigint_from_dat.constprop.0.cold>
  402d35:	81 fb 00 32 00 00    	cmp    ebx,0x3200
  402d3b:	c7 00 00 00 00 00    	mov    DWORD PTR [rax],0x0
  402d41:	49 89 c5             	mov    r13,rax
  402d44:	0f 87 a6 00 00 00    	ja     402df0 <get_bigint_from_dat.constprop.0+0x100>
  402d4a:	be 4f 92 41 00       	mov    esi,0x41924f
  402d4f:	4c 89 f7             	mov    rdi,r14
  402d52:	e8 b9 d7 ff ff       	call   400510 <fopen@plt>
  402d57:	48 85 c0             	test   rax,rax
  402d5a:	49 89 c7             	mov    r15,rax
  402d5d:	0f 84 a9 00 00 00    	je     402e0c <get_bigint_from_dat.constprop.0+0x11c>
  402d63:	f6 c3 07             	test   bl,0x7
  402d66:	89 d8                	mov    eax,ebx
  402d68:	74 0d                	je     402d77 <get_bigint_from_dat.constprop.0+0x87>
  402d6a:	66 0f 1f 44 00 00    	nop    WORD PTR [rax+rax*1+0x0]
  402d70:	83 c0 01             	add    eax,0x1
  402d73:	a8 07                	test   al,0x7
  402d75:	75 f9                	jne    402d70 <get_bigint_from_dat.constprop.0+0x80>
  402d77:	41 89 5c 24 0c       	mov    DWORD PTR [r12+0xc],ebx
  402d7c:	89 c3                	mov    ebx,eax
  402d7e:	4c 89 f9             	mov    rcx,r15
  402d81:	be 01 00 00 00       	mov    esi,0x1
  402d86:	c1 eb 03             	shr    ebx,0x3
  402d89:	4c 89 ef             	mov    rdi,r13
  402d8c:	48 89 da             	mov    rdx,rbx
  402d8f:	e8 5c d6 ff ff       	call   4003f0 <fread@plt>
  402d94:	48 39 c3             	cmp    rbx,rax
  402d97:	75 1f                	jne    402db8 <get_bigint_from_dat.constprop.0+0xc8>
  402d99:	4c 89 ff             	mov    rdi,r15
  402d9c:	e8 6f d6 ff ff       	call   400410 <fclose@plt>
  402da1:	85 c0                	test   eax,eax
  402da3:	75 2e                	jne    402dd3 <get_bigint_from_dat.constprop.0+0xe3>
  402da5:	5b                   	pop    rbx
  402da6:	4c 89 e0             	mov    rax,r12
  402da9:	41 5c                	pop    r12
  402dab:	41 5d                	pop    r13
  402dad:	41 5e                	pop    r14
  402daf:	41 5f                	pop    r15
  402db1:	c3                   	ret
  402db2:	66 0f 1f 44 00 00    	nop    WORD PTR [rax+rax*1+0x0]
  402db8:	4c 89 f6             	mov    rsi,r14
  402dbb:	bf 90 92 41 00       	mov    edi,0x419290
  402dc0:	31 c0                	xor    eax,eax
  402dc2:	e8 69 d6 ff ff       	call   400430 <printf@plt>
  402dc7:	4c 89 ff             	mov    rdi,r15
  402dca:	e8 41 d6 ff ff       	call   400410 <fclose@plt>
  402dcf:	85 c0                	test   eax,eax
  402dd1:	74 d2                	je     402da5 <get_bigint_from_dat.constprop.0+0xb5>
  402dd3:	4c 89 f6             	mov    rsi,r14
  402dd6:	bf c8 92 41 00       	mov    edi,0x4192c8
  402ddb:	31 c0                	xor    eax,eax
  402ddd:	e8 4e d6 ff ff       	call   400430 <printf@plt>
  402de2:	5b                   	pop    rbx
  402de3:	4c 89 e0             	mov    rax,r12
  402de6:	41 5c                	pop    r12
  402de8:	41 5d                	pop    r13
  402dea:	41 5e                	pop    r14
  402dec:	41 5f                	pop    r15
  402dee:	c3                   	ret
  402def:	90                   	nop
  402df0:	4c 89 f6             	mov    rsi,r14
  402df3:	bf 18 92 41 00       	mov    edi,0x419218
  402df8:	31 c0                	xor    eax,eax
  402dfa:	e8 31 d6 ff ff       	call   400430 <printf@plt>
  402dff:	5b                   	pop    rbx
  402e00:	4c 89 e0             	mov    rax,r12
  402e03:	41 5c                	pop    r12
  402e05:	41 5d                	pop    r13
  402e07:	41 5e                	pop    r14
  402e09:	41 5f                	pop    r15
  402e0b:	c3                   	ret
  402e0c:	4c 89 f6             	mov    rsi,r14
  402e0f:	bf 58 92 41 00       	mov    edi,0x419258
  402e14:	31 c0                	xor    eax,eax
  402e16:	e8 15 d6 ff ff       	call   400430 <printf@plt>
  402e1b:	eb 88                	jmp    402da5 <get_bigint_from_dat.constprop.0+0xb5>
  402e1d:	0f 1f 00             	nop    DWORD PTR [rax]

0000000000402e20 <chacha_inner>:
  402e20:	55                   	push   rbp
  402e21:	49 89 f8             	mov    r8,rdi
  402e24:	48 89 e5             	mov    rbp,rsp
  402e27:	41 57                	push   r15
  402e29:	41 56                	push   r14
  402e2b:	41 55                	push   r13
  402e2d:	41 54                	push   r12
  402e2f:	53                   	push   rbx
  402e30:	48 83 e4 e0          	and    rsp,0xffffffffffffffe0
  402e34:	8b 47 10             	mov    eax,DWORD PTR [rdi+0x10]
  402e37:	44 8b 3f             	mov    r15d,DWORD PTR [rdi]
  402e3a:	44 8b 57 30          	mov    r10d,DWORD PTR [rdi+0x30]
  402e3e:	44 8b 4f 20          	mov    r9d,DWORD PTR [rdi+0x20]
  402e42:	41 01 c7             	add    r15d,eax
  402e45:	8b 57 14             	mov    edx,DWORD PTR [rdi+0x14]
  402e48:	44 8b 67 04          	mov    r12d,DWORD PTR [rdi+0x4]
  402e4c:	45 31 fa             	xor    r10d,r15d
  402e4f:	8b 77 34             	mov    esi,DWORD PTR [rdi+0x34]
  402e52:	44 8b 5f 08          	mov    r11d,DWORD PTR [rdi+0x8]
  402e56:	c4 43 7b f0 d2 10    	rorx   r10d,r10d,0x10
  402e5c:	45 01 d1             	add    r9d,r10d
  402e5f:	41 01 d4             	add    r12d,edx
  402e62:	8b 4f 38             	mov    ecx,DWORD PTR [rdi+0x38]
  402e65:	44 31 c8             	xor    eax,r9d
  402e68:	44 31 e6             	xor    esi,r12d
  402e6b:	45 8b 68 0c          	mov    r13d,DWORD PTR [r8+0xc]
  402e6f:	c4 e3 7b f0 c0 14    	rorx   eax,eax,0x14
  402e75:	41 01 c7             	add    r15d,eax
  402e78:	c4 e3 7b f0 f6 10    	rorx   esi,esi,0x10
  402e7e:	45 31 fa             	xor    r10d,r15d
  402e81:	c4 43 7b f0 d2 18    	rorx   r10d,r10d,0x18
  402e87:	45 01 d1             	add    r9d,r10d
  402e8a:	44 31 c8             	xor    eax,r9d
  402e8d:	c4 e3 7b f0 c0 19    	rorx   eax,eax,0x19
  402e93:	89 44 24 e8          	mov    DWORD PTR [rsp-0x18],eax
  402e97:	8b 47 24             	mov    eax,DWORD PTR [rdi+0x24]
  402e9a:	01 f0                	add    eax,esi
  402e9c:	31 c2                	xor    edx,eax
  402e9e:	c4 e3 7b f0 d2 14    	rorx   edx,edx,0x14
  402ea4:	41 01 d4             	add    r12d,edx
  402ea7:	44 31 e6             	xor    esi,r12d
  402eaa:	c4 e3 7b f0 f6 18    	rorx   esi,esi,0x18
  402eb0:	8d 1c 30             	lea    ebx,[rax+rsi*1]
  402eb3:	8b 47 18             	mov    eax,DWORD PTR [rdi+0x18]
  402eb6:	8b 7f 28             	mov    edi,DWORD PTR [rdi+0x28]
  402eb9:	89 5c 24 f0          	mov    DWORD PTR [rsp-0x10],ebx
  402ebd:	31 da                	xor    edx,ebx
  402ebf:	41 01 c3             	add    r11d,eax
  402ec2:	c4 e3 7b f0 d2 19    	rorx   edx,edx,0x19
  402ec8:	41 01 d7             	add    r15d,edx
  402ecb:	44 31 d9             	xor    ecx,r11d
  402ece:	c4 e3 7b f0 c9 10    	rorx   ecx,ecx,0x10
  402ed4:	01 cf                	add    edi,ecx
  402ed6:	31 f8                	xor    eax,edi
  402ed8:	c4 e3 7b f0 c0 14    	rorx   eax,eax,0x14
  402ede:	41 01 c3             	add    r11d,eax
  402ee1:	44 31 d9             	xor    ecx,r11d
  402ee4:	c4 e3 7b f0 d9 18    	rorx   ebx,ecx,0x18
  402eea:	41 8b 48 1c          	mov    ecx,DWORD PTR [r8+0x1c]
  402eee:	44 8d 34 1f          	lea    r14d,[rdi+rbx*1]
  402ef2:	89 5c 24 fc          	mov    DWORD PTR [rsp-0x4],ebx
  402ef6:	41 8b 78 3c          	mov    edi,DWORD PTR [r8+0x3c]
  402efa:	41 8b 58 2c          	mov    ebx,DWORD PTR [r8+0x2c]
  402efe:	44 31 f0             	xor    eax,r14d
  402f01:	41 01 cd             	add    r13d,ecx
  402f04:	c4 e3 7b f0 c0 19    	rorx   eax,eax,0x19
  402f0a:	44 31 ef             	xor    edi,r13d
  402f0d:	c4 e3 7b f0 ff 10    	rorx   edi,edi,0x10
  402f13:	01 fb                	add    ebx,edi
  402f15:	31 d9                	xor    ecx,ebx
  402f17:	c4 e3 7b f0 c9 14    	rorx   ecx,ecx,0x14
  402f1d:	41 01 cd             	add    r13d,ecx
  402f20:	44 31 ef             	xor    edi,r13d
  402f23:	c4 e3 7b f0 ff 18    	rorx   edi,edi,0x18
  402f29:	01 fb                	add    ebx,edi
  402f2b:	31 d9                	xor    ecx,ebx
  402f2d:	44 31 ff             	xor    edi,r15d
  402f30:	41 01 c4             	add    r12d,eax
  402f33:	45 31 e2             	xor    r10d,r12d
  402f36:	c4 e3 7b f0 ff 10    	rorx   edi,edi,0x10
  402f3c:	41 01 fe             	add    r14d,edi
  402f3f:	c4 e3 7b f0 c9 19    	rorx   ecx,ecx,0x19
  402f45:	c4 43 7b f0 d2 10    	rorx   r10d,r10d,0x10
  402f4b:	44 01 d3             	add    ebx,r10d
  402f4e:	44 31 f2             	xor    edx,r14d
  402f51:	41 01 cb             	add    r11d,ecx
  402f54:	31 d8                	xor    eax,ebx
  402f56:	c4 e3 7b f0 d2 14    	rorx   edx,edx,0x14
  402f5c:	41 01 d7             	add    r15d,edx
  402f5f:	44 31 de             	xor    esi,r11d
  402f62:	c4 e3 7b f0 c0 14    	rorx   eax,eax,0x14
  402f68:	41 01 c4             	add    r12d,eax
  402f6b:	44 89 7c 24 f4       	mov    DWORD PTR [rsp-0xc],r15d
  402f70:	44 31 ff             	xor    edi,r15d
  402f73:	45 31 e2             	xor    r10d,r12d
  402f76:	44 8b 7c 24 e8       	mov    r15d,DWORD PTR [rsp-0x18]
  402f7b:	c4 e3 7b f0 ff 18    	rorx   edi,edi,0x18
  402f81:	41 01 fe             	add    r14d,edi
  402f84:	c4 43 7b f0 d2 18    	rorx   r10d,r10d,0x18
  402f8a:	44 01 d3             	add    ebx,r10d
  402f8d:	44 89 54 24 f8       	mov    DWORD PTR [rsp-0x8],r10d
  402f92:	44 8b 54 24 fc       	mov    r10d,DWORD PTR [rsp-0x4]
  402f97:	44 89 74 24 ec       	mov    DWORD PTR [rsp-0x14],r14d
  402f9c:	45 01 fd             	add    r13d,r15d
  402f9f:	44 8b 74 24 f0       	mov    r14d,DWORD PTR [rsp-0x10]
  402fa4:	c4 e3 7b f0 f6 10    	rorx   esi,esi,0x10
  402faa:	45 31 ea             	xor    r10d,r13d
  402fad:	41 01 f1             	add    r9d,esi
  402fb0:	31 d8                	xor    eax,ebx
  402fb2:	c5 f9 6e 74 24 f4    	vmovd  xmm6,DWORD PTR [rsp-0xc]
  402fb8:	c4 43 7b f0 d2 10    	rorx   r10d,r10d,0x10
  402fbe:	45 01 d6             	add    r14d,r10d
  402fc1:	44 31 c9             	xor    ecx,r9d
  402fc4:	c4 e3 7b f0 c0 19    	rorx   eax,eax,0x19
  402fca:	45 31 f7             	xor    r15d,r14d
  402fcd:	c4 e3 7b f0 c9 14    	rorx   ecx,ecx,0x14
  402fd3:	41 01 cb             	add    r11d,ecx
  402fd6:	c5 f9 6e d8          	vmovd  xmm3,eax
  402fda:	c4 43 7b f0 ff 14    	rorx   r15d,r15d,0x14
  402fe0:	45 01 fd             	add    r13d,r15d
  402fe3:	44 31 de             	xor    esi,r11d
  402fe6:	c4 c1 79 6e eb       	vmovd  xmm5,r11d
  402feb:	45 31 ea             	xor    r10d,r13d
  402fee:	c4 e3 7b f0 f6 18    	rorx   esi,esi,0x18
  402ff4:	41 01 f1             	add    r9d,esi
  402ff7:	c4 c3 51 22 d5 01    	vpinsrd xmm2,xmm5,r13d,0x1
  402ffd:	c4 43 7b f0 d2 18    	rorx   r10d,r10d,0x18
  403003:	45 01 d6             	add    r14d,r10d
  403006:	44 31 c9             	xor    ecx,r9d
  403009:	c4 c1 79 6e fa       	vmovd  xmm7,r10d
  40300e:	44 89 74 24 fc       	mov    DWORD PTR [rsp-0x4],r14d
  403013:	45 31 f7             	xor    r15d,r14d
  403016:	44 8b 74 24 ec       	mov    r14d,DWORD PTR [rsp-0x14]
  40301b:	c4 e3 7b f0 c9 19    	rorx   ecx,ecx,0x19
  403021:	c4 43 7b f0 ff 19    	rorx   r15d,r15d,0x19
  403027:	c4 c1 79 6e e7       	vmovd  xmm4,r15d
  40302c:	c4 e3 61 22 c1 01    	vpinsrd xmm0,xmm3,ecx,0x1
  403032:	c4 c1 79 6e e9       	vmovd  xmm5,r9d
  403037:	44 31 f2             	xor    edx,r14d
  40303a:	c5 f9 6e 5c 24 f8    	vmovd  xmm3,DWORD PTR [rsp-0x8]
  403040:	c4 e3 7b f0 d2 19    	rorx   edx,edx,0x19
  403046:	c4 e3 59 22 ca 01    	vpinsrd xmm1,xmm4,edx,0x1
  40304c:	c4 c1 79 6e e6       	vmovd  xmm4,r14d
  403051:	c5 f1 6c c8          	vpunpcklqdq xmm1,xmm1,xmm0
  403055:	c4 c3 49 22 c4 01    	vpinsrd xmm0,xmm6,r12d,0x1
  40305b:	c5 f9 6c c2          	vpunpcklqdq xmm0,xmm0,xmm2
  40305f:	c4 e3 59 22 d3 01    	vpinsrd xmm2,xmm4,ebx,0x1
  403065:	c4 e3 7d 38 c1 01    	vinserti128 ymm0,ymm0,xmm1,0x1
  40306b:	c4 e3 61 22 ce 01    	vpinsrd xmm1,xmm3,esi,0x1
  403071:	c4 c1 7e 7f 00       	vmovdqu YMMWORD PTR [r8],ymm0
  403076:	c4 e3 41 22 c7 01    	vpinsrd xmm0,xmm7,edi,0x1
  40307c:	c5 f1 6c c8          	vpunpcklqdq xmm1,xmm1,xmm0
  403080:	c4 e3 51 22 44 24 fc 	vpinsrd xmm0,xmm5,DWORD PTR [rsp-0x4],0x1
  403087:	01 
  403088:	c5 f9 6c c2          	vpunpcklqdq xmm0,xmm0,xmm2
  40308c:	c4 e3 7d 38 c1 01    	vinserti128 ymm0,ymm0,xmm1,0x1
  403092:	c4 c1 7e 7f 40 20    	vmovdqu YMMWORD PTR [r8+0x20],ymm0
  403098:	c5 f8 77             	vzeroupper
  40309b:	48 8d 65 d8          	lea    rsp,[rbp-0x28]
  40309f:	5b                   	pop    rbx
  4030a0:	41 5c                	pop    r12
  4030a2:	41 5d                	pop    r13
  4030a4:	41 5e                	pop    r14
  4030a6:	41 5f                	pop    r15
  4030a8:	5d                   	pop    rbp
  4030a9:	c3                   	ret
  4030aa:	66 0f 1f 44 00 00    	nop    WORD PTR [rax+rax*1+0x0]

00000000004030b0 <chacha20.constprop.1>:
  4030b0:	55                   	push   rbp
  4030b1:	48 89 e5             	mov    rbp,rsp
  4030b4:	41 57                	push   r15
  4030b6:	49 89 cf             	mov    r15,rcx
  4030b9:	41 56                	push   r14
  4030bb:	49 89 fe             	mov    r14,rdi
  4030be:	bf 01 00 00 00       	mov    edi,0x1
  4030c3:	41 55                	push   r13
  4030c5:	49 89 d5             	mov    r13,rdx
  4030c8:	41 54                	push   r12
  4030ca:	53                   	push   rbx
  4030cb:	48 89 f3             	mov    rbx,rsi
  4030ce:	be 40 00 00 00       	mov    esi,0x40
  4030d3:	48 83 e4 e0          	and    rsp,0xffffffffffffffe0
  4030d7:	48 81 ec e0 00 00 00 	sub    rsp,0xe0
  4030de:	e8 9d d3 ff ff       	call   400480 <calloc@plt>
  4030e3:	c4 c1 7e 6f 45 00    	vmovdqu ymm0,YMMWORD PTR [r13+0x0]
  4030e9:	c5 fa 6f 0b          	vmovdqu xmm1,XMMWORD PTR [rbx]
  4030ed:	bb 0a 00 00 00       	mov    ebx,0xa
  4030f2:	49 89 c4             	mov    r12,rax
  4030f5:	c4 e2 7d 00 05 22 80 	vpshufb ymm0,ymm0,YMMWORD PTR [rip+0x18022]        # 41b120 <BLAKE2B_IV+0x120>
  4030fc:	01 00 
  4030fe:	c4 e2 71 00 0d 19 80 	vpshufb xmm1,xmm1,XMMWORD PTR [rip+0x18019]        # 41b120 <BLAKE2B_IV+0x120>
  403105:	01 00 
  403107:	c5 f9 70 d8 55       	vpshufd xmm3,xmm0,0x55
  40310c:	c5 f9 70 e0 aa       	vpshufd xmm4,xmm0,0xaa
  403111:	c5 f9 70 e8 ff       	vpshufd xmm5,xmm0,0xff
  403116:	c5 fe 7f 84 24 b0 00 	vmovdqu YMMWORD PTR [rsp+0xb0],ymm0
  40311d:	00 00 
  40311f:	c5 f9 7f 44 24 10    	vmovdqa XMMWORD PTR [rsp+0x10],xmm0
  403125:	c4 e3 7d 39 c0 01    	vextracti128 xmm0,ymm0,0x1
  40312b:	c4 c1 79 7e cd       	vmovd  r13d,xmm1
  403130:	c4 e3 79 16 4c 24 38 	vpextrd DWORD PTR [rsp+0x38],xmm1,0x1
  403137:	01 
  403138:	c5 f9 70 f0 55       	vpshufd xmm6,xmm0,0x55
  40313d:	c5 f9 70 f8 aa       	vpshufd xmm7,xmm0,0xaa
  403142:	c5 f9 7f 9c 24 80 00 	vmovdqa XMMWORD PTR [rsp+0x80],xmm3
  403149:	00 00 
  40314b:	c5 f9 70 d8 ff       	vpshufd xmm3,xmm0,0xff
  403150:	c5 f9 7f 44 24 60    	vmovdqa XMMWORD PTR [rsp+0x60],xmm0
  403156:	c4 e3 79 16 4c 24 34 	vpextrd DWORD PTR [rsp+0x34],xmm1,0x2
  40315d:	02 
  40315e:	c5 f9 6f 05 aa 7f 01 	vmovdqa xmm0,XMMWORD PTR [rip+0x17faa]        # 41b110 <BLAKE2B_IV+0x110>
  403165:	00 
  403166:	c4 e3 79 16 4c 24 3c 	vpextrd DWORD PTR [rsp+0x3c],xmm1,0x3
  40316d:	03 
  40316e:	c5 f9 7f 8c 24 d0 00 	vmovdqa XMMWORD PTR [rsp+0xd0],xmm1
  403175:	00 00 
  403177:	c5 f9 7f 64 24 40    	vmovdqa XMMWORD PTR [rsp+0x40],xmm4
  40317d:	c5 f9 7f 6c 24 70    	vmovdqa XMMWORD PTR [rsp+0x70],xmm5
  403183:	c5 f9 7f 74 24 50    	vmovdqa XMMWORD PTR [rsp+0x50],xmm6
  403189:	c5 f9 7f bc 24 90 00 	vmovdqa XMMWORD PTR [rsp+0x90],xmm7
  403190:	00 00 
  403192:	c5 f9 7f 5c 24 20    	vmovdqa XMMWORD PTR [rsp+0x20],xmm3
  403198:	c5 f8 77             	vzeroupper
  40319b:	0f 1f 44 00 00       	nop    DWORD PTR [rax+rax*1+0x0]
  4031a0:	48 8d bc 24 a0 00 00 	lea    rdi,[rsp+0xa0]
  4031a7:	00 
  4031a8:	c5 f9 7f 84 24 a0 00 	vmovdqa XMMWORD PTR [rsp+0xa0],xmm0
  4031af:	00 00 
  4031b1:	e8 6a fc ff ff       	call   402e20 <chacha_inner>
  4031b6:	83 eb 01             	sub    ebx,0x1
  4031b9:	c5 f9 6f 84 24 a0 00 	vmovdqa xmm0,XMMWORD PTR [rsp+0xa0]
  4031c0:	00 00 
  4031c2:	75 dc                	jne    4031a0 <chacha20.constprop.1+0xf0>
  4031c4:	8b 84 24 a4 00 00 00 	mov    eax,DWORD PTR [rsp+0xa4]
  4031cb:	8b b4 24 a0 00 00 00 	mov    esi,DWORD PTR [rsp+0xa0]
  4031d2:	c5 f9 6e 84 24 b0 00 	vmovd  xmm0,DWORD PTR [rsp+0xb0]
  4031d9:	00 00 
  4031db:	c5 f9 fe 7c 24 10    	vpaddd xmm7,xmm0,XMMWORD PTR [rsp+0x10]
  4031e1:	44 03 ac 24 d0 00 00 	add    r13d,DWORD PTR [rsp+0xd0]
  4031e8:	00 
  4031e9:	c5 f9 6e 84 24 b4 00 	vmovd  xmm0,DWORD PTR [rsp+0xb4]
  4031f0:	00 00 
  4031f2:	8d 88 6e 64 20 33    	lea    ecx,[rax+0x3320646e]
  4031f8:	8b 84 24 a8 00 00 00 	mov    eax,DWORD PTR [rsp+0xa8]
  4031ff:	44 8b 4c 24 38       	mov    r9d,DWORD PTR [rsp+0x38]
  403204:	81 c6 65 78 70 61    	add    esi,0x61707865
  40320a:	44 03 8c 24 d4 00 00 	add    r9d,DWORD PTR [rsp+0xd4]
  403211:	00 
  403212:	44 8b 44 24 34       	mov    r8d,DWORD PTR [rsp+0x34]
  403217:	41 89 34 24          	mov    DWORD PTR [r12],esi
  40321b:	8d 90 32 2d 62 79    	lea    edx,[rax+0x79622d32]
  403221:	8b 84 24 ac 00 00 00 	mov    eax,DWORD PTR [rsp+0xac]
  403228:	8b 7c 24 3c          	mov    edi,DWORD PTR [rsp+0x3c]
  40322c:	41 89 4c 24 04       	mov    DWORD PTR [r12+0x4],ecx
  403231:	c5 f9 fe b4 24 80 00 	vpaddd xmm6,xmm0,XMMWORD PTR [rsp+0x80]
  403238:	00 00 
  40323a:	44 03 84 24 d8 00 00 	add    r8d,DWORD PTR [rsp+0xd8]
  403241:	00 
  403242:	c5 f9 6e 84 24 b8 00 	vmovd  xmm0,DWORD PTR [rsp+0xb8]
  403249:	00 00 
  40324b:	41 89 54 24 08       	mov    DWORD PTR [r12+0x8],edx
  403250:	05 74 65 20 6b       	add    eax,0x6b206574
  403255:	c5 f9 fe 6c 24 40    	vpaddd xmm5,xmm0,XMMWORD PTR [rsp+0x40]
  40325b:	c5 f9 6e 84 24 bc 00 	vmovd  xmm0,DWORD PTR [rsp+0xbc]
  403262:	00 00 
  403264:	c5 f9 fe 64 24 70    	vpaddd xmm4,xmm0,XMMWORD PTR [rsp+0x70]
  40326a:	41 89 44 24 0c       	mov    DWORD PTR [r12+0xc],eax
  40326f:	49 8d 47 ff          	lea    rax,[r15-0x1]
  403273:	c5 f9 6e 84 24 c0 00 	vmovd  xmm0,DWORD PTR [rsp+0xc0]
  40327a:	00 00 
  40327c:	c5 f9 fe 5c 24 60    	vpaddd xmm3,xmm0,XMMWORD PTR [rsp+0x60]
  403282:	4c 29 f0             	sub    rax,r14
  403285:	03 bc 24 dc 00 00 00 	add    edi,DWORD PTR [rsp+0xdc]
  40328c:	c5 f9 6e 84 24 c4 00 	vmovd  xmm0,DWORD PTR [rsp+0xc4]
  403293:	00 00 
  403295:	c5 f9 fe 54 24 50    	vpaddd xmm2,xmm0,XMMWORD PTR [rsp+0x50]
  40329b:	c5 f9 6e 84 24 c8 00 	vmovd  xmm0,DWORD PTR [rsp+0xc8]
  4032a2:	00 00 
  4032a4:	48 83 f8 1e          	cmp    rax,0x1e
  4032a8:	c5 f9 fe 8c 24 90 00 	vpaddd xmm1,xmm0,XMMWORD PTR [rsp+0x90]
  4032af:	00 00 
  4032b1:	c5 f9 6e 84 24 cc 00 	vmovd  xmm0,DWORD PTR [rsp+0xcc]
  4032b8:	00 00 
  4032ba:	c5 f9 fe 44 24 20    	vpaddd xmm0,xmm0,XMMWORD PTR [rsp+0x20]
  4032c0:	c4 c1 79 7e 7c 24 10 	vmovd  DWORD PTR [r12+0x10],xmm7
  4032c7:	c4 c1 79 7e 74 24 14 	vmovd  DWORD PTR [r12+0x14],xmm6
  4032ce:	45 89 6c 24 30       	mov    DWORD PTR [r12+0x30],r13d
  4032d3:	45 89 4c 24 34       	mov    DWORD PTR [r12+0x34],r9d
  4032d8:	45 89 44 24 38       	mov    DWORD PTR [r12+0x38],r8d
  4032dd:	41 89 7c 24 3c       	mov    DWORD PTR [r12+0x3c],edi
  4032e2:	c4 c1 79 7e 6c 24 18 	vmovd  DWORD PTR [r12+0x18],xmm5
  4032e9:	c4 c1 79 7e 64 24 1c 	vmovd  DWORD PTR [r12+0x1c],xmm4
  4032f0:	c4 c1 79 7e 5c 24 20 	vmovd  DWORD PTR [r12+0x20],xmm3
  4032f7:	c4 c1 79 7e 54 24 24 	vmovd  DWORD PTR [r12+0x24],xmm2
  4032fe:	c4 c1 79 7e 4c 24 28 	vmovd  DWORD PTR [r12+0x28],xmm1
  403305:	c4 c1 79 7e 44 24 2c 	vmovd  DWORD PTR [r12+0x2c],xmm0
  40330c:	76 32                	jbe    403340 <chacha20.constprop.1+0x290>
  40330e:	c4 c1 7e 6f 06       	vmovdqu ymm0,YMMWORD PTR [r14]
  403313:	c4 c1 7d ef 04 24    	vpxor  ymm0,ymm0,YMMWORD PTR [r12]
  403319:	c4 c1 7e 7f 07       	vmovdqu YMMWORD PTR [r15],ymm0
  40331e:	c5 f8 77             	vzeroupper
  403321:	48 8d 65 d8          	lea    rsp,[rbp-0x28]
  403325:	4c 89 e7             	mov    rdi,r12
  403328:	5b                   	pop    rbx
  403329:	41 5c                	pop    r12
  40332b:	41 5d                	pop    r13
  40332d:	41 5e                	pop    r14
  40332f:	41 5f                	pop    r15
  403331:	5d                   	pop    rbp
  403332:	e9 39 d0 ff ff       	jmp    400370 <free@plt>
  403337:	66 0f 1f 84 00 00 00 	nop    WORD PTR [rax+rax*1+0x0]
  40333e:	00 00 
  403340:	31 c0                	xor    eax,eax
  403342:	41 0f b6 14 04       	movzx  edx,BYTE PTR [r12+rax*1]
  403347:	41 32 14 06          	xor    dl,BYTE PTR [r14+rax*1]
  40334b:	41 88 14 07          	mov    BYTE PTR [r15+rax*1],dl
  40334f:	48 83 c0 01          	add    rax,0x1
  403353:	48 83 f8 20          	cmp    rax,0x20
  403357:	75 e9                	jne    403342 <chacha20.constprop.1+0x292>
  403359:	eb c6                	jmp    403321 <chacha20.constprop.1+0x271>
  40335b:	0f 1f 44 00 00       	nop    DWORD PTR [rax+rax*1+0x0]

0000000000403360 <chacha20.constprop.2>:
  403360:	55                   	push   rbp
  403361:	48 89 e5             	mov    rbp,rsp
  403364:	41 57                	push   r15
  403366:	41 56                	push   r14
  403368:	41 55                	push   r13
  40336a:	49 89 fd             	mov    r13,rdi
  40336d:	41 54                	push   r12
  40336f:	49 89 cc             	mov    r12,rcx
  403372:	53                   	push   rbx
  403373:	bb 0a 00 00 00       	mov    ebx,0xa
  403378:	48 83 e4 e0          	and    rsp,0xffffffffffffffe0
  40337c:	48 83 ec 60          	sub    rsp,0x60
  403380:	c5 fe 6f 02          	vmovdqu ymm0,YMMWORD PTR [rdx]
  403384:	c4 e2 7d 00 05 93 7d 	vpshufb ymm0,ymm0,YMMWORD PTR [rip+0x17d93]        # 41b120 <BLAKE2B_IV+0x120>
  40338b:	01 00 
  40338d:	c5 fe 7f 44 24 30    	vmovdqu YMMWORD PTR [rsp+0x30],ymm0
  403393:	c5 fa 6f 06          	vmovdqu xmm0,XMMWORD PTR [rsi]
  403397:	c4 e2 79 00 05 80 7d 	vpshufb xmm0,xmm0,XMMWORD PTR [rip+0x17d80]        # 41b120 <BLAKE2B_IV+0x120>
  40339e:	01 00 
  4033a0:	c5 f9 7f 44 24 50    	vmovdqa XMMWORD PTR [rsp+0x50],xmm0
  4033a6:	c5 f9 6f 05 62 7d 01 	vmovdqa xmm0,XMMWORD PTR [rip+0x17d62]        # 41b110 <BLAKE2B_IV+0x110>
  4033ad:	00 
  4033ae:	c5 f8 77             	vzeroupper
  4033b1:	0f 1f 80 00 00 00 00 	nop    DWORD PTR [rax+0x0]
  4033b8:	48 8d 7c 24 20       	lea    rdi,[rsp+0x20]
  4033bd:	c5 f9 7f 44 24 20    	vmovdqa XMMWORD PTR [rsp+0x20],xmm0
  4033c3:	e8 58 fa ff ff       	call   402e20 <chacha_inner>
  4033c8:	83 eb 01             	sub    ebx,0x1
  4033cb:	c5 f9 6f 44 24 20    	vmovdqa xmm0,XMMWORD PTR [rsp+0x20]
  4033d1:	75 e5                	jne    4033b8 <chacha20.constprop.2+0x58>
  4033d3:	8b 44 24 20          	mov    eax,DWORD PTR [rsp+0x20]
  4033d7:	8b 4c 24 24          	mov    ecx,DWORD PTR [rsp+0x24]
  4033db:	4d 8d 44 24 ff       	lea    r8,[r12-0x1]
  4033e0:	8b 54 24 28          	mov    edx,DWORD PTR [rsp+0x28]
  4033e4:	4d 29 e8             	sub    r8,r13
  4033e7:	05 65 78 70 61       	add    eax,0x61707865
  4033ec:	8d 99 6e 64 20 33    	lea    ebx,[rcx+0x3320646e]
  4033f2:	8b 4c 24 2c          	mov    ecx,DWORD PTR [rsp+0x2c]
  4033f6:	0f b6 f4             	movzx  esi,ah
  4033f9:	81 c2 32 2d 62 79    	add    edx,0x79622d32
  4033ff:	89 c7                	mov    edi,eax
  403401:	41 89 c6             	mov    r14d,eax
  403404:	41 89 f7             	mov    r15d,esi
  403407:	0f b6 f7             	movzx  esi,bh
  40340a:	81 c1 74 65 20 6b    	add    ecx,0x6b206574
  403410:	41 89 db             	mov    r11d,ebx
  403413:	89 74 24 1c          	mov    DWORD PTR [rsp+0x1c],esi
  403417:	89 de                	mov    esi,ebx
  403419:	41 89 d2             	mov    r10d,edx
  40341c:	41 89 c9             	mov    r9d,ecx
  40341f:	c1 ee 10             	shr    esi,0x10
  403422:	c1 ef 10             	shr    edi,0x10
  403425:	89 74 24 10          	mov    DWORD PTR [rsp+0x10],esi
  403429:	41 c1 ee 18          	shr    r14d,0x18
  40342d:	0f b6 f6             	movzx  esi,dh
  403430:	41 c1 eb 18          	shr    r11d,0x18
  403434:	89 74 24 14          	mov    DWORD PTR [rsp+0x14],esi
  403438:	41 c1 ea 18          	shr    r10d,0x18
  40343c:	89 d6                	mov    esi,edx
  40343e:	41 c1 e9 18          	shr    r9d,0x18
  403442:	c1 ee 10             	shr    esi,0x10
  403445:	89 74 24 0c          	mov    DWORD PTR [rsp+0xc],esi
  403449:	0f b6 f5             	movzx  esi,ch
  40344c:	89 74 24 18          	mov    DWORD PTR [rsp+0x18],esi
  403450:	89 ce                	mov    esi,ecx
  403452:	c1 ee 10             	shr    esi,0x10
  403455:	49 83 f8 0e          	cmp    r8,0xe
  403459:	0f 86 91 00 00 00    	jbe    4034f0 <chacha20.constprop.2+0x190>
  40345f:	c5 f9 6e db          	vmovd  xmm3,ebx
  403463:	c5 f9 6e c0          	vmovd  xmm0,eax
  403467:	c4 e3 61 20 5c 24 1c 	vpinsrb xmm3,xmm3,BYTE PTR [rsp+0x1c],0x1
  40346e:	01 
  40346f:	c5 f9 6e 74 24 10    	vmovd  xmm6,DWORD PTR [rsp+0x10]
  403475:	c5 f9 6e ff          	vmovd  xmm7,edi
  403479:	c5 f9 6e ca          	vmovd  xmm1,edx
  40347d:	c5 f9 6e d1          	vmovd  xmm2,ecx
  403481:	c5 f9 6e 6c 24 0c    	vmovd  xmm5,DWORD PTR [rsp+0xc]
  403487:	c5 f9 6e e6          	vmovd  xmm4,esi
  40348b:	c4 e3 71 20 4c 24 14 	vpinsrb xmm1,xmm1,BYTE PTR [rsp+0x14],0x1
  403492:	01 
  403493:	c4 e3 69 20 54 24 18 	vpinsrb xmm2,xmm2,BYTE PTR [rsp+0x18],0x1
  40349a:	01 
  40349b:	c4 c3 79 20 c7 01    	vpinsrb xmm0,xmm0,r15d,0x1
  4034a1:	c4 c3 41 20 fe 01    	vpinsrb xmm7,xmm7,r14d,0x1
  4034a7:	c4 c3 49 20 f3 01    	vpinsrb xmm6,xmm6,r11d,0x1
  4034ad:	c4 c3 51 20 ea 01    	vpinsrb xmm5,xmm5,r10d,0x1
  4034b3:	c4 c3 59 20 e1 01    	vpinsrb xmm4,xmm4,r9d,0x1
  4034b9:	c5 f9 61 c7          	vpunpcklwd xmm0,xmm0,xmm7
  4034bd:	c5 e1 61 de          	vpunpcklwd xmm3,xmm3,xmm6
  4034c1:	c5 f1 61 cd          	vpunpcklwd xmm1,xmm1,xmm5
  4034c5:	c5 e9 61 d4          	vpunpcklwd xmm2,xmm2,xmm4
  4034c9:	c5 f9 62 c3          	vpunpckldq xmm0,xmm0,xmm3
  4034cd:	c5 f1 62 ca          	vpunpckldq xmm1,xmm1,xmm2
  4034d1:	c5 f9 6c c1          	vpunpcklqdq xmm0,xmm0,xmm1
  4034d5:	c4 c1 79 ef 45 00    	vpxor  xmm0,xmm0,XMMWORD PTR [r13+0x0]
  4034db:	c4 c1 7a 7f 04 24    	vmovdqu XMMWORD PTR [r12],xmm0
  4034e1:	48 8d 65 d8          	lea    rsp,[rbp-0x28]
  4034e5:	5b                   	pop    rbx
  4034e6:	41 5c                	pop    r12
  4034e8:	41 5d                	pop    r13
  4034ea:	41 5e                	pop    r14
  4034ec:	41 5f                	pop    r15
  4034ee:	5d                   	pop    rbp
  4034ef:	c3                   	ret
  4034f0:	41 32 45 00          	xor    al,BYTE PTR [r13+0x0]
  4034f4:	41 88 04 24          	mov    BYTE PTR [r12],al
  4034f8:	45 32 7d 01          	xor    r15b,BYTE PTR [r13+0x1]
  4034fc:	45 88 7c 24 01       	mov    BYTE PTR [r12+0x1],r15b
  403501:	41 32 7d 02          	xor    dil,BYTE PTR [r13+0x2]
  403505:	41 88 7c 24 02       	mov    BYTE PTR [r12+0x2],dil
  40350a:	41 0f b6 45 03       	movzx  eax,BYTE PTR [r13+0x3]
  40350f:	44 31 f0             	xor    eax,r14d
  403512:	44 0f b6 74 24 1c    	movzx  r14d,BYTE PTR [rsp+0x1c]
  403518:	41 88 44 24 03       	mov    BYTE PTR [r12+0x3],al
  40351d:	41 32 5d 04          	xor    bl,BYTE PTR [r13+0x4]
  403521:	41 88 5c 24 04       	mov    BYTE PTR [r12+0x4],bl
  403526:	45 32 75 05          	xor    r14b,BYTE PTR [r13+0x5]
  40352a:	45 88 74 24 05       	mov    BYTE PTR [r12+0x5],r14b
  40352f:	0f b6 44 24 10       	movzx  eax,BYTE PTR [rsp+0x10]
  403534:	41 32 45 06          	xor    al,BYTE PTR [r13+0x6]
  403538:	41 88 44 24 06       	mov    BYTE PTR [r12+0x6],al
  40353d:	41 0f b6 45 07       	movzx  eax,BYTE PTR [r13+0x7]
  403542:	44 31 d8             	xor    eax,r11d
  403545:	44 0f b6 5c 24 14    	movzx  r11d,BYTE PTR [rsp+0x14]
  40354b:	41 88 44 24 07       	mov    BYTE PTR [r12+0x7],al
  403550:	41 32 55 08          	xor    dl,BYTE PTR [r13+0x8]
  403554:	41 88 54 24 08       	mov    BYTE PTR [r12+0x8],dl
  403559:	45 32 5d 09          	xor    r11b,BYTE PTR [r13+0x9]
  40355d:	45 88 5c 24 09       	mov    BYTE PTR [r12+0x9],r11b
  403562:	0f b6 44 24 0c       	movzx  eax,BYTE PTR [rsp+0xc]
  403567:	41 32 45 0a          	xor    al,BYTE PTR [r13+0xa]
  40356b:	41 88 44 24 0a       	mov    BYTE PTR [r12+0xa],al
  403570:	41 0f b6 45 0b       	movzx  eax,BYTE PTR [r13+0xb]
  403575:	44 31 d0             	xor    eax,r10d
  403578:	44 0f b6 54 24 18    	movzx  r10d,BYTE PTR [rsp+0x18]
  40357e:	41 88 44 24 0b       	mov    BYTE PTR [r12+0xb],al
  403583:	41 32 4d 0c          	xor    cl,BYTE PTR [r13+0xc]
  403587:	41 88 4c 24 0c       	mov    BYTE PTR [r12+0xc],cl
  40358c:	45 32 55 0d          	xor    r10b,BYTE PTR [r13+0xd]
  403590:	45 88 54 24 0d       	mov    BYTE PTR [r12+0xd],r10b
  403595:	41 32 75 0e          	xor    sil,BYTE PTR [r13+0xe]
  403599:	41 88 74 24 0e       	mov    BYTE PTR [r12+0xe],sil
  40359e:	45 32 4d 0f          	xor    r9b,BYTE PTR [r13+0xf]
  4035a2:	45 88 4c 24 0f       	mov    BYTE PTR [r12+0xf],r9b
  4035a7:	48 8d 65 d8          	lea    rsp,[rbp-0x28]
  4035ab:	5b                   	pop    rbx
  4035ac:	41 5c                	pop    r12
  4035ae:	41 5d                	pop    r13
  4035b0:	41 5e                	pop    r14
  4035b2:	41 5f                	pop    r15
  4035b4:	5d                   	pop    rbp
  4035b5:	c3                   	ret
  4035b6:	66 2e 0f 1f 84 00 00 	cs nop WORD PTR [rax+rax*1+0x0]
  4035bd:	00 00 00 

00000000004035c0 <argon2_h_dash.constprop.0>:
  4035c0:	55                   	push   rbp
  4035c1:	48 89 e5             	mov    rbp,rsp
  4035c4:	41 57                	push   r15
  4035c6:	49 89 f7             	mov    r15,rsi
  4035c9:	41 56                	push   r14
  4035cb:	41 55                	push   r13
  4035cd:	41 54                	push   r12
  4035cf:	49 89 fc             	mov    r12,rdi
  4035d2:	bf 01 00 00 00       	mov    edi,0x1
  4035d7:	53                   	push   rbx
  4035d8:	48 83 e4 e0          	and    rsp,0xffffffffffffffe0
  4035dc:	48 83 ec 60          	sub    rsp,0x60
  4035e0:	48 89 74 24 10       	mov    QWORD PTR [rsp+0x10],rsi
  4035e5:	be c0 07 00 00       	mov    esi,0x7c0
  4035ea:	e8 91 ce ff ff       	call   400480 <calloc@plt>
  4035ef:	be 4c 00 00 00       	mov    esi,0x4c
  4035f4:	bf 01 00 00 00       	mov    edi,0x1
  4035f9:	48 89 c3             	mov    rbx,rax
  4035fc:	e8 7f ce ff ff       	call   400480 <calloc@plt>
  403601:	c4 c1 7e 6f 04 24    	vmovdqu ymm0,YMMWORD PTR [r12]
  403607:	31 f6                	xor    esi,esi
  403609:	4c 89 ff             	mov    rdi,r15
  40360c:	49 89 c6             	mov    r14,rax
  40360f:	48 89 44 24 08       	mov    QWORD PTR [rsp+0x8],rax
  403614:	ba 00 04 00 00       	mov    edx,0x400
  403619:	49 89 df             	mov    r15,rbx
  40361c:	c5 fe 7f 40 04       	vmovdqu YMMWORD PTR [rax+0x4],ymm0
  403621:	c4 c1 7e 6f 44 24 20 	vmovdqu ymm0,YMMWORD PTR [r12+0x20]
  403628:	c7 00 00 04 00 00    	mov    DWORD PTR [rax],0x400
  40362e:	c5 fe 7f 40 24       	vmovdqu YMMWORD PTR [rax+0x24],ymm0
  403633:	49 8b 44 24 40       	mov    rax,QWORD PTR [r12+0x40]
  403638:	49 89 dc             	mov    r12,rbx
  40363b:	49 89 46 44          	mov    QWORD PTR [r14+0x44],rax
  40363f:	c5 f8 77             	vzeroupper
  403642:	e8 09 ce ff ff       	call   400450 <memset@plt>
  403647:	be 80 00 00 00       	mov    esi,0x80
  40364c:	bf 01 00 00 00       	mov    edi,0x1
  403651:	e8 2a ce ff ff       	call   400480 <calloc@plt>
  403656:	c4 c1 7e 6f 06       	vmovdqu ymm0,YMMWORD PTR [r14]
  40365b:	b9 01 00 00 00       	mov    ecx,0x1
  403660:	c5 fd 6f 1d 98 79 01 	vmovdqa ymm3,YMMWORD PTR [rip+0x17998]        # 41b000 <BLAKE2B_IV>
  403667:	00 
  403668:	49 89 c5             	mov    r13,rax
  40366b:	ba 4c 00 00 00       	mov    edx,0x4c
  403670:	48 8d 7c 24 20       	lea    rdi,[rsp+0x20]
  403675:	c5 fd 6f 25 a3 79 01 	vmovdqa ymm4,YMMWORD PTR [rip+0x179a3]        # 41b020 <BLAKE2B_IV+0x20>
  40367c:	00 
  40367d:	c5 fe 7f 00          	vmovdqu YMMWORD PTR [rax],ymm0
  403681:	c4 c1 7e 6f 46 20    	vmovdqu ymm0,YMMWORD PTR [r14+0x20]
  403687:	4c 89 ee             	mov    rsi,r13
  40368a:	c5 fd 7f 5c 24 20    	vmovdqa YMMWORD PTR [rsp+0x20],ymm3
  403690:	c5 fe 7f 40 20       	vmovdqu YMMWORD PTR [rax+0x20],ymm0
  403695:	c4 c1 7a 6f 46 3c    	vmovdqu xmm0,XMMWORD PTR [r14+0x3c]
  40369b:	c5 fd 7f 64 24 40    	vmovdqa YMMWORD PTR [rsp+0x40],ymm4
  4036a1:	c5 fa 7f 40 3c       	vmovdqu XMMWORD PTR [rax+0x3c],xmm0
  4036a6:	48 b8 48 c9 bd f2 67 	movabs rax,0x6a09e667f2bdc948
  4036ad:	e6 09 6a 
  4036b0:	48 89 44 24 20       	mov    QWORD PTR [rsp+0x20],rax
  4036b5:	c5 f8 77             	vzeroupper
  4036b8:	e8 93 ee ff ff       	call   402550 <blake2b_f>
  4036bd:	c5 fd 6f 44 24 20    	vmovdqa ymm0,YMMWORD PTR [rsp+0x20]
  4036c3:	4c 89 ef             	mov    rdi,r13
  4036c6:	c5 fe 7f 03          	vmovdqu YMMWORD PTR [rbx],ymm0
  4036ca:	c5 fd 6f 44 24 40    	vmovdqa ymm0,YMMWORD PTR [rsp+0x40]
  4036d0:	c5 fe 7f 43 20       	vmovdqu YMMWORD PTR [rbx+0x20],ymm0
  4036d5:	c5 f8 77             	vzeroupper
  4036d8:	e8 93 cc ff ff       	call   400370 <free@plt>
  4036dd:	48 8d 83 40 07 00 00 	lea    rax,[rbx+0x740]
  4036e4:	48 89 44 24 18       	mov    QWORD PTR [rsp+0x18],rax
  4036e9:	0f 1f 80 00 00 00 00 	nop    DWORD PTR [rax+0x0]
  4036f0:	4d 89 e6             	mov    r14,r12
  4036f3:	be 80 00 00 00       	mov    esi,0x80
  4036f8:	bf 01 00 00 00       	mov    edi,0x1
  4036fd:	49 83 c4 40          	add    r12,0x40
  403701:	e8 7a cd ff ff       	call   400480 <calloc@plt>
  403706:	c4 c1 7e 6f 06       	vmovdqu ymm0,YMMWORD PTR [r14]
  40370b:	b9 01 00 00 00       	mov    ecx,0x1
  403710:	c5 fd 6f 0d e8 78 01 	vmovdqa ymm1,YMMWORD PTR [rip+0x178e8]        # 41b000 <BLAKE2B_IV>
  403717:	00 
  403718:	49 89 c5             	mov    r13,rax
  40371b:	ba 40 00 00 00       	mov    edx,0x40
  403720:	48 8d 7c 24 20       	lea    rdi,[rsp+0x20]
  403725:	c5 fd 6f 15 f3 78 01 	vmovdqa ymm2,YMMWORD PTR [rip+0x178f3]        # 41b020 <BLAKE2B_IV+0x20>
  40372c:	00 
  40372d:	c5 fe 7f 00          	vmovdqu YMMWORD PTR [rax],ymm0
  403731:	c4 c1 7e 6f 46 20    	vmovdqu ymm0,YMMWORD PTR [r14+0x20]
  403737:	4c 89 ee             	mov    rsi,r13
  40373a:	c5 fd 7f 4c 24 20    	vmovdqa YMMWORD PTR [rsp+0x20],ymm1
  403740:	c5 fe 7f 40 20       	vmovdqu YMMWORD PTR [rax+0x20],ymm0
  403745:	48 b8 48 c9 bd f2 67 	movabs rax,0x6a09e667f2bdc948
  40374c:	e6 09 6a 
  40374f:	48 89 44 24 20       	mov    QWORD PTR [rsp+0x20],rax
  403754:	c5 fd 7f 54 24 40    	vmovdqa YMMWORD PTR [rsp+0x40],ymm2
  40375a:	c5 f8 77             	vzeroupper
  40375d:	e8 ee ed ff ff       	call   402550 <blake2b_f>
  403762:	c5 fd 6f 44 24 20    	vmovdqa ymm0,YMMWORD PTR [rsp+0x20]
  403768:	4c 89 ef             	mov    rdi,r13
  40376b:	c4 c1 7e 7f 04 24    	vmovdqu YMMWORD PTR [r12],ymm0
  403771:	c5 fd 6f 44 24 40    	vmovdqa ymm0,YMMWORD PTR [rsp+0x40]
  403777:	c4 c1 7e 7f 44 24 20 	vmovdqu YMMWORD PTR [r12+0x20],ymm0
  40377e:	c5 f8 77             	vzeroupper
  403781:	e8 ea cb ff ff       	call   400370 <free@plt>
  403786:	4c 3b 64 24 18       	cmp    r12,QWORD PTR [rsp+0x18]
  40378b:	0f 85 5f ff ff ff    	jne    4036f0 <argon2_h_dash.constprop.0+0x130>
  403791:	be 80 00 00 00       	mov    esi,0x80
  403796:	bf 01 00 00 00       	mov    edi,0x1
  40379b:	4c 8d ab 80 07 00 00 	lea    r13,[rbx+0x780]
  4037a2:	e8 d9 cc ff ff       	call   400480 <calloc@plt>
  4037a7:	ba 40 00 00 00       	mov    edx,0x40
  4037ac:	48 8d 7c 24 20       	lea    rdi,[rsp+0x20]
  4037b1:	c5 fd 6f 2d 47 78 01 	vmovdqa ymm5,YMMWORD PTR [rip+0x17847]        # 41b000 <BLAKE2B_IV>
  4037b8:	00 
  4037b9:	c5 fe 6f 83 40 07 00 	vmovdqu ymm0,YMMWORD PTR [rbx+0x740]
  4037c0:	00 
  4037c1:	c5 fd 6f 35 57 78 01 	vmovdqa ymm6,YMMWORD PTR [rip+0x17857]        # 41b020 <BLAKE2B_IV+0x20>
  4037c8:	00 
  4037c9:	48 89 44 24 18       	mov    QWORD PTR [rsp+0x18],rax
  4037ce:	48 89 c6             	mov    rsi,rax
  4037d1:	48 b9 48 c9 bd f2 67 	movabs rcx,0x6a09e667f2bdc948
  4037d8:	e6 09 6a 
  4037db:	c5 fd 7f 6c 24 20    	vmovdqa YMMWORD PTR [rsp+0x20],ymm5
  4037e1:	c5 fe 7f 00          	vmovdqu YMMWORD PTR [rax],ymm0
  4037e5:	c4 c1 7e 6f 44 24 20 	vmovdqu ymm0,YMMWORD PTR [r12+0x20]
  4037ec:	48 89 4c 24 20       	mov    QWORD PTR [rsp+0x20],rcx
  4037f1:	b9 01 00 00 00       	mov    ecx,0x1
  4037f6:	c5 fe 7f 40 20       	vmovdqu YMMWORD PTR [rax+0x20],ymm0
  4037fb:	c5 fd 7f 74 24 40    	vmovdqa YMMWORD PTR [rsp+0x40],ymm6
  403801:	c5 f8 77             	vzeroupper
  403804:	e8 47 ed ff ff       	call   402550 <blake2b_f>
  403809:	c5 fd 6f 44 24 20    	vmovdqa ymm0,YMMWORD PTR [rsp+0x20]
  40380f:	48 8b 7c 24 18       	mov    rdi,QWORD PTR [rsp+0x18]
  403814:	c5 fe 7f 83 80 07 00 	vmovdqu YMMWORD PTR [rbx+0x780],ymm0
  40381b:	00 
  40381c:	c5 fd 6f 44 24 40    	vmovdqa ymm0,YMMWORD PTR [rsp+0x40]
  403822:	c5 fe 7f 83 a0 07 00 	vmovdqu YMMWORD PTR [rbx+0x7a0],ymm0
  403829:	00 
  40382a:	c5 f8 77             	vzeroupper
  40382d:	e8 3e cb ff ff       	call   400370 <free@plt>
  403832:	48 8b 44 24 10       	mov    rax,QWORD PTR [rsp+0x10]
  403837:	66 0f 1f 84 00 00 00 	nop    WORD PTR [rax+rax*1+0x0]
  40383e:	00 00 
  403840:	c4 c1 7e 6f 07       	vmovdqu ymm0,YMMWORD PTR [r15]
  403845:	49 83 c7 40          	add    r15,0x40
  403849:	48 83 c0 20          	add    rax,0x20
  40384d:	c5 fe 7f 40 e0       	vmovdqu YMMWORD PTR [rax-0x20],ymm0
  403852:	4d 39 ef             	cmp    r15,r13
  403855:	75 e9                	jne    403840 <argon2_h_dash.constprop.0+0x280>
  403857:	48 8b 44 24 10       	mov    rax,QWORD PTR [rsp+0x10]
  40385c:	c5 fe 6f 83 80 07 00 	vmovdqu ymm0,YMMWORD PTR [rbx+0x780]
  403863:	00 
  403864:	48 8b 7c 24 08       	mov    rdi,QWORD PTR [rsp+0x8]
  403869:	c5 fe 7f 80 c0 03 00 	vmovdqu YMMWORD PTR [rax+0x3c0],ymm0
  403870:	00 
  403871:	c4 c1 7e 6f 47 20    	vmovdqu ymm0,YMMWORD PTR [r15+0x20]
  403877:	c5 fe 7f 80 e0 03 00 	vmovdqu YMMWORD PTR [rax+0x3e0],ymm0
  40387e:	00 
  40387f:	c5 f8 77             	vzeroupper
  403882:	e8 e9 ca ff ff       	call   400370 <free@plt>
  403887:	48 8d 65 d8          	lea    rsp,[rbp-0x28]
  40388b:	48 89 df             	mov    rdi,rbx
  40388e:	5b                   	pop    rbx
  40388f:	41 5c                	pop    r12
  403891:	41 5d                	pop    r13
  403893:	41 5e                	pop    r14
  403895:	41 5f                	pop    r15
  403897:	5d                   	pop    rbp
  403898:	e9 d3 ca ff ff       	jmp    400370 <free@plt>
  40389d:	0f 1f 00             	nop    DWORD PTR [rax]

00000000004038a0 <output_red>:
  4038a0:	bf fc 92 41 00       	mov    edi,0x4192fc
  4038a5:	31 c0                	xor    eax,eax
  4038a7:	e9 84 cb ff ff       	jmp    400430 <printf@plt>
  4038ac:	0f 1f 40 00          	nop    DWORD PTR [rax+0x0]

00000000004038b0 <output_yel>:
  4038b0:	bf 04 93 41 00       	mov    edi,0x419304
  4038b5:	31 c0                	xor    eax,eax
  4038b7:	e9 74 cb ff ff       	jmp    400430 <printf@plt>
  4038bc:	0f 1f 40 00          	nop    DWORD PTR [rax+0x0]

00000000004038c0 <output_rst>:
  4038c0:	bf 0c 93 41 00       	mov    edi,0x41930c
  4038c5:	31 c0                	xor    eax,eax
  4038c7:	e9 64 cb ff ff       	jmp    400430 <printf@plt>
  4038cc:	0f 1f 40 00          	nop    DWORD PTR [rax+0x0]

00000000004038d0 <print_buffer>:
  4038d0:	41 55                	push   r13
  4038d2:	49 89 fd             	mov    r13,rdi
  4038d5:	bf 11 93 41 00       	mov    edi,0x419311
  4038da:	41 54                	push   r12
  4038dc:	49 89 f4             	mov    r12,rsi
  4038df:	53                   	push   rbx
  4038e0:	e8 eb ca ff ff       	call   4003d0 <puts@plt>
  4038e5:	4d 85 e4             	test   r12,r12
  4038e8:	74 35                	je     40391f <print_buffer+0x4f>
  4038ea:	31 db                	xor    ebx,ebx
  4038ec:	0f 1f 40 00          	nop    DWORD PTR [rax+0x0]
  4038f0:	f6 c3 0f             	test   bl,0xf
  4038f3:	75 0f                	jne    403904 <print_buffer+0x34>
  4038f5:	48 85 db             	test   rbx,rbx
  4038f8:	74 0a                	je     403904 <print_buffer+0x34>
  4038fa:	bf 0a 00 00 00       	mov    edi,0xa
  4038ff:	e8 8c ca ff ff       	call   400390 <putchar@plt>
  403904:	41 0f b6 74 1d 00    	movzx  esi,BYTE PTR [r13+rbx*1+0x0]
  40390a:	31 c0                	xor    eax,eax
  40390c:	bf 13 93 41 00       	mov    edi,0x419313
  403911:	48 83 c3 01          	add    rbx,0x1
  403915:	e8 16 cb ff ff       	call   400430 <printf@plt>
  40391a:	49 39 dc             	cmp    r12,rbx
  40391d:	75 d1                	jne    4038f0 <print_buffer+0x20>
  40391f:	5b                   	pop    rbx
  403920:	bf 11 93 41 00       	mov    edi,0x419311
  403925:	41 5c                	pop    r12
  403927:	41 5d                	pop    r13
  403929:	e9 a2 ca ff ff       	jmp    4003d0 <puts@plt>
  40392e:	66 90                	xchg   ax,ax

0000000000403930 <get_used_bits>:
  403930:	49 89 f8             	mov    r8,rdi
  403933:	8d 7e ff             	lea    edi,[rsi-0x1]
  403936:	8d 0c f5 00 00 00 00 	lea    ecx,[rsi*8+0x0]
  40393d:	41 b9 2f 00 00 00    	mov    r9d,0x2f
  403943:	48 8d 77 e1          	lea    rsi,[rdi-0x1f]
  403947:	48 89 f8             	mov    rax,rdi
  40394a:	4d 8d 14 30          	lea    r10,[r8+rsi*1]
  40394e:	41 83 e2 1f          	and    r10d,0x1f
  403952:	49 8d 52 20          	lea    rdx,[r10+0x20]
  403956:	4c 39 ca             	cmp    rdx,r9
  403959:	49 0f 42 d1          	cmovb  rdx,r9
  40395d:	48 39 d7             	cmp    rdi,rdx
  403960:	0f 82 06 02 00 00    	jb     403b6c <get_used_bits+0x23c>
  403966:	4d 85 d2             	test   r10,r10
  403969:	49 89 f9             	mov    r9,rdi
  40396c:	74 5a                	je     4039c8 <get_used_bits+0x98>
  40396e:	4d 29 d1             	sub    r9,r10
  403971:	41 0f b6 14 00       	movzx  edx,BYTE PTR [r8+rax*1]
  403976:	84 d2                	test   dl,dl
  403978:	0f 88 dd 01 00 00    	js     403b5b <get_used_bits+0x22b>
  40397e:	f6 c2 40             	test   dl,0x40
  403981:	0f 85 d1 01 00 00    	jne    403b58 <get_used_bits+0x228>
  403987:	f6 c2 20             	test   dl,0x20
  40398a:	0f 85 38 02 00 00    	jne    403bc8 <get_used_bits+0x298>
  403990:	f6 c2 10             	test   dl,0x10
  403993:	0f 85 37 02 00 00    	jne    403bd0 <get_used_bits+0x2a0>
  403999:	f6 c2 08             	test   dl,0x8
  40399c:	0f 85 3e 02 00 00    	jne    403be0 <get_used_bits+0x2b0>
  4039a2:	f6 c2 04             	test   dl,0x4
  4039a5:	0f 85 45 02 00 00    	jne    403bf0 <get_used_bits+0x2c0>
  4039ab:	f6 c2 02             	test   dl,0x2
  4039ae:	0f 85 4c 02 00 00    	jne    403c00 <get_used_bits+0x2d0>
  4039b4:	84 d2                	test   dl,dl
  4039b6:	0f 85 54 02 00 00    	jne    403c10 <get_used_bits+0x2e0>
  4039bc:	48 83 e8 01          	sub    rax,0x1
  4039c0:	83 e9 08             	sub    ecx,0x8
  4039c3:	4c 39 c8             	cmp    rax,r9
  4039c6:	75 a9                	jne    403971 <get_used_bits+0x41>
  4039c8:	b8 40 40 40 40       	mov    eax,0x40404040
  4039cd:	48 83 c7 01          	add    rdi,0x1
  4039d1:	c5 f9 6e e1          	vmovd  xmm4,ecx
  4039d5:	4c 29 d6             	sub    rsi,r10
  4039d8:	c4 c1 f9 6e f9       	vmovq  xmm7,r9
  4039dd:	c5 f9 6e f0          	vmovd  xmm6,eax
  4039e1:	49 8d 14 30          	lea    rdx,[r8+rsi*1]
  4039e5:	4c 29 d7             	sub    rdi,r10
  4039e8:	b8 20 20 20 20       	mov    eax,0x20202020
  4039ed:	c4 e2 7d 59 d7       	vpbroadcastq ymm2,xmm7
  4039f2:	49 89 fa             	mov    r10,rdi
  4039f5:	48 89 d6             	mov    rsi,rdx
  4039f8:	c5 f9 6e f8          	vmovd  xmm7,eax
  4039fc:	c5 d5 76 ed          	vpcmpeqd ymm5,ymm5,ymm5
  403a00:	c4 41 35 76 c9       	vpcmpeqd ymm9,ymm9,ymm9
  403a05:	49 83 e2 e0          	and    r10,0xffffffffffffffe0
  403a09:	b8 10 10 10 10       	mov    eax,0x10101010
  403a0e:	c4 e2 7d 58 e4       	vpbroadcastd ymm4,xmm4
  403a13:	4c 29 d6             	sub    rsi,r10
  403a16:	c5 7d 6f 15 62 77 01 	vmovdqa ymm10,YMMWORD PTR [rip+0x17762]        # 41b180 <BLAKE2B_IV+0x180>
  403a1d:	00 
  403a1e:	c5 79 6e c0          	vmovd  xmm8,eax
  403a22:	c4 e2 7d 1c ed       	vpabsb ymm5,ymm5
  403a27:	c5 f1 ef c9          	vpxor  xmm1,xmm1,xmm1
  403a2b:	c4 e2 7d 58 f6       	vpbroadcastd ymm6,xmm6
  403a30:	c4 e2 7d 58 ff       	vpbroadcastd ymm7,xmm7
  403a35:	c4 42 7d 58 c0       	vpbroadcastd ymm8,xmm8
  403a3a:	c5 dd fe 25 fe 76 01 	vpaddd ymm4,ymm4,YMMWORD PTR [rip+0x176fe]        # 41b140 <BLAKE2B_IV+0x140>
  403a41:	00 
  403a42:	c5 ed d4 15 16 77 01 	vpaddq ymm2,ymm2,YMMWORD PTR [rip+0x17716]        # 41b160 <BLAKE2B_IV+0x160>
  403a49:	00 
  403a4a:	c4 c1 35 72 f1 08    	vpslld ymm9,ymm9,0x8
  403a50:	c5 fd 6f 02          	vmovdqa ymm0,YMMWORD PTR [rdx]
  403a54:	c4 e3 7d 46 c0 01    	vperm2i128 ymm0,ymm0,ymm0,0x1
  403a5a:	c4 c2 7d 00 c2       	vpshufb ymm0,ymm0,ymm10
  403a5f:	c5 e5 71 d0 07       	vpsrlw ymm3,ymm0,0x7
  403a64:	c5 d5 db db          	vpand  ymm3,ymm5,ymm3
  403a68:	c5 e5 74 d9          	vpcmpeqb ymm3,ymm3,ymm1
  403a6c:	c5 e5 74 d9          	vpcmpeqb ymm3,ymm3,ymm1
  403a70:	c4 e2 7d 17 db       	vptest ymm3,ymm3
  403a75:	0f 85 e5 00 00 00    	jne    403b60 <get_used_bits+0x230>
  403a7b:	c5 fd db de          	vpand  ymm3,ymm0,ymm6
  403a7f:	c5 e5 74 d9          	vpcmpeqb ymm3,ymm3,ymm1
  403a83:	c5 e5 74 d9          	vpcmpeqb ymm3,ymm3,ymm1
  403a87:	c4 e2 7d 17 db       	vptest ymm3,ymm3
  403a8c:	0f 85 ce 00 00 00    	jne    403b60 <get_used_bits+0x230>
  403a92:	c5 fd db df          	vpand  ymm3,ymm0,ymm7
  403a96:	c5 e5 74 d9          	vpcmpeqb ymm3,ymm3,ymm1
  403a9a:	c5 e5 74 d9          	vpcmpeqb ymm3,ymm3,ymm1
  403a9e:	c4 e2 7d 17 db       	vptest ymm3,ymm3
  403aa3:	0f 85 b7 00 00 00    	jne    403b60 <get_used_bits+0x230>
  403aa9:	c4 c1 7d db d8       	vpand  ymm3,ymm0,ymm8
  403aae:	c5 e5 74 d9          	vpcmpeqb ymm3,ymm3,ymm1
  403ab2:	c5 e5 74 d9          	vpcmpeqb ymm3,ymm3,ymm1
  403ab6:	c4 e2 7d 17 db       	vptest ymm3,ymm3
  403abb:	0f 85 9f 00 00 00    	jne    403b60 <get_used_bits+0x230>
  403ac1:	b8 08 08 08 08       	mov    eax,0x8080808
  403ac6:	c5 f9 6e d8          	vmovd  xmm3,eax
  403aca:	c4 e2 7d 58 db       	vpbroadcastd ymm3,xmm3
  403acf:	c5 fd db db          	vpand  ymm3,ymm0,ymm3
  403ad3:	c5 e5 74 d9          	vpcmpeqb ymm3,ymm3,ymm1
  403ad7:	c5 e5 74 d9          	vpcmpeqb ymm3,ymm3,ymm1
  403adb:	c4 e2 7d 17 db       	vptest ymm3,ymm3
  403ae0:	75 7e                	jne    403b60 <get_used_bits+0x230>
  403ae2:	b8 04 04 04 04       	mov    eax,0x4040404
  403ae7:	c5 f9 6e d8          	vmovd  xmm3,eax
  403aeb:	c4 e2 7d 58 db       	vpbroadcastd ymm3,xmm3
  403af0:	c5 fd db db          	vpand  ymm3,ymm0,ymm3
  403af4:	c5 e5 74 d9          	vpcmpeqb ymm3,ymm3,ymm1
  403af8:	c5 e5 74 d9          	vpcmpeqb ymm3,ymm3,ymm1
  403afc:	c4 e2 7d 17 db       	vptest ymm3,ymm3
  403b01:	75 5d                	jne    403b60 <get_used_bits+0x230>
  403b03:	b8 02 02 02 02       	mov    eax,0x2020202
  403b08:	c5 f9 6e d8          	vmovd  xmm3,eax
  403b0c:	c4 e2 7d 58 db       	vpbroadcastd ymm3,xmm3
  403b11:	c5 fd db db          	vpand  ymm3,ymm0,ymm3
  403b15:	c5 e5 74 d9          	vpcmpeqb ymm3,ymm3,ymm1
  403b19:	c5 e5 74 d9          	vpcmpeqb ymm3,ymm3,ymm1
  403b1d:	c4 e2 7d 17 db       	vptest ymm3,ymm3
  403b22:	75 3c                	jne    403b60 <get_used_bits+0x230>
  403b24:	c5 fd 74 c1          	vpcmpeqb ymm0,ymm0,ymm1
  403b28:	c5 fd 74 c1          	vpcmpeqb ymm0,ymm0,ymm1
  403b2c:	c4 e2 7d 17 c0       	vptest ymm0,ymm0
  403b31:	75 2d                	jne    403b60 <get_used_bits+0x230>
  403b33:	c4 e2 7d 59 05 c4 78 	vpbroadcastq ymm0,QWORD PTR [rip+0x178c4]        # 41b400 <BLAKE2B_IV+0x400>
  403b3a:	01 00 
  403b3c:	48 83 ea 20          	sub    rdx,0x20
  403b40:	48 39 f2             	cmp    rdx,rsi
  403b43:	c5 ed d4 d0          	vpaddq ymm2,ymm2,ymm0
  403b47:	74 65                	je     403bae <get_used_bits+0x27e>
  403b49:	c4 c1 5d fe e1       	vpaddd ymm4,ymm4,ymm9
  403b4e:	e9 fd fe ff ff       	jmp    403a50 <get_used_bits+0x120>
  403b53:	0f 1f 44 00 00       	nop    DWORD PTR [rax+rax*1+0x0]
  403b58:	83 e9 01             	sub    ecx,0x1
  403b5b:	89 c8                	mov    eax,ecx
  403b5d:	c3                   	ret
  403b5e:	66 90                	xchg   ax,ax
  403b60:	c4 e1 f9 7e d0       	vmovq  rax,xmm2
  403b65:	c5 f9 7e e1          	vmovd  ecx,xmm4
  403b69:	c5 f8 77             	vzeroupper
  403b6c:	4c 01 c0             	add    rax,r8
  403b6f:	0f b6 10             	movzx  edx,BYTE PTR [rax]
  403b72:	84 d2                	test   dl,dl
  403b74:	78 e5                	js     403b5b <get_used_bits+0x22b>
  403b76:	f6 c2 40             	test   dl,0x40
  403b79:	75 dd                	jne    403b58 <get_used_bits+0x228>
  403b7b:	f6 c2 20             	test   dl,0x20
  403b7e:	75 48                	jne    403bc8 <get_used_bits+0x298>
  403b80:	f6 c2 10             	test   dl,0x10
  403b83:	75 4b                	jne    403bd0 <get_used_bits+0x2a0>
  403b85:	f6 c2 08             	test   dl,0x8
  403b88:	75 56                	jne    403be0 <get_used_bits+0x2b0>
  403b8a:	f6 c2 04             	test   dl,0x4
  403b8d:	75 61                	jne    403bf0 <get_used_bits+0x2c0>
  403b8f:	f6 c2 02             	test   dl,0x2
  403b92:	75 6c                	jne    403c00 <get_used_bits+0x2d0>
  403b94:	84 d2                	test   dl,dl
  403b96:	75 78                	jne    403c10 <get_used_bits+0x2e0>
  403b98:	83 e9 08             	sub    ecx,0x8
  403b9b:	4c 39 c0             	cmp    rax,r8
  403b9e:	74 bb                	je     403b5b <get_used_bits+0x22b>
  403ba0:	0f b6 50 ff          	movzx  edx,BYTE PTR [rax-0x1]
  403ba4:	48 83 e8 01          	sub    rax,0x1
  403ba8:	84 d2                	test   dl,dl
  403baa:	79 ca                	jns    403b76 <get_used_bits+0x246>
  403bac:	eb ad                	jmp    403b5b <get_used_bits+0x22b>
  403bae:	4c 39 d7             	cmp    rdi,r10
  403bb1:	74 63                	je     403c16 <get_used_bits+0x2e6>
  403bb3:	4c 89 c8             	mov    rax,r9
  403bb6:	4c 29 d0             	sub    rax,r10
  403bb9:	41 c1 e2 03          	shl    r10d,0x3
  403bbd:	44 29 d1             	sub    ecx,r10d
  403bc0:	c5 f8 77             	vzeroupper
  403bc3:	eb a7                	jmp    403b6c <get_used_bits+0x23c>
  403bc5:	0f 1f 00             	nop    DWORD PTR [rax]
  403bc8:	83 e9 02             	sub    ecx,0x2
  403bcb:	89 c8                	mov    eax,ecx
  403bcd:	c3                   	ret
  403bce:	66 90                	xchg   ax,ax
  403bd0:	83 e9 03             	sub    ecx,0x3
  403bd3:	89 c8                	mov    eax,ecx
  403bd5:	c3                   	ret
  403bd6:	66 2e 0f 1f 84 00 00 	cs nop WORD PTR [rax+rax*1+0x0]
  403bdd:	00 00 00 
  403be0:	83 e9 04             	sub    ecx,0x4
  403be3:	89 c8                	mov    eax,ecx
  403be5:	c3                   	ret
  403be6:	66 2e 0f 1f 84 00 00 	cs nop WORD PTR [rax+rax*1+0x0]
  403bed:	00 00 00 
  403bf0:	83 e9 05             	sub    ecx,0x5
  403bf3:	89 c8                	mov    eax,ecx
  403bf5:	c3                   	ret
  403bf6:	66 2e 0f 1f 84 00 00 	cs nop WORD PTR [rax+rax*1+0x0]
  403bfd:	00 00 00 
  403c00:	83 e9 06             	sub    ecx,0x6
  403c03:	89 c8                	mov    eax,ecx
  403c05:	c3                   	ret
  403c06:	66 2e 0f 1f 84 00 00 	cs nop WORD PTR [rax+rax*1+0x0]
  403c0d:	00 00 00 
  403c10:	83 e9 07             	sub    ecx,0x7
  403c13:	89 c8                	mov    eax,ecx
  403c15:	c3                   	ret
  403c16:	b8 38 ff ff ff       	mov    eax,0xffffff38
  403c1b:	c5 f9 6e c0          	vmovd  xmm0,eax
  403c1f:	c4 e2 7d 58 c0       	vpbroadcastd ymm0,xmm0
  403c24:	c5 dd fe c0          	vpaddd ymm0,ymm4,ymm0
  403c28:	c4 e3 7d 39 c0 01    	vextracti128 xmm0,ymm0,0x1
  403c2e:	c4 e3 79 16 c1 03    	vpextrd ecx,xmm0,0x3
  403c34:	c5 f8 77             	vzeroupper
  403c37:	e9 1f ff ff ff       	jmp    403b5b <get_used_bits+0x22b>
  403c3c:	0f 1f 40 00          	nop    DWORD PTR [rax+0x0]

0000000000403c40 <bigint_create_from_u32>:
  403c40:	41 55                	push   r13
  403c42:	41 89 f5             	mov    r13d,esi
  403c45:	41 83 e5 07          	and    r13d,0x7
  403c49:	41 54                	push   r12
  403c4b:	53                   	push   rbx
  403c4c:	0f 85 5e 01 00 00    	jne    403db0 <bigint_create_from_u32+0x170>
  403c52:	8d 46 bf             	lea    eax,[rsi-0x41]
  403c55:	3d 3f 34 b4 ff       	cmp    eax,0xffb4343f
  403c5a:	0f 87 50 01 00 00    	ja     403db0 <bigint_create_from_u32+0x170>
  403c60:	89 77 08             	mov    DWORD PTR [rdi+0x8],esi
  403c63:	49 89 fc             	mov    r12,rdi
  403c66:	c1 ee 03             	shr    esi,0x3
  403c69:	bf 01 00 00 00       	mov    edi,0x1
  403c6e:	89 d3                	mov    ebx,edx
  403c70:	e8 0b c8 ff ff       	call   400480 <calloc@plt>
  403c75:	41 c7 44 24 0c 00 00 	mov    DWORD PTR [r12+0xc],0x0
  403c7c:	00 00 
  403c7e:	48 85 c0             	test   rax,rax
  403c81:	49 89 04 24          	mov    QWORD PTR [r12],rax
  403c85:	0f 84 f3 c9 ff ff    	je     40067e <bigint_create_from_u32.cold>
  403c8b:	89 18                	mov    DWORD PTR [rax],ebx
  403c8d:	89 d8                	mov    eax,ebx
  403c8f:	c1 e8 18             	shr    eax,0x18
  403c92:	85 db                	test   ebx,ebx
  403c94:	0f 88 57 01 00 00    	js     403df1 <bigint_create_from_u32+0x1b1>
  403c9a:	a8 40                	test   al,0x40
  403c9c:	0f 85 57 01 00 00    	jne    403df9 <bigint_create_from_u32+0x1b9>
  403ca2:	a8 20                	test   al,0x20
  403ca4:	0f 85 64 01 00 00    	jne    403e0e <bigint_create_from_u32+0x1ce>
  403caa:	a8 10                	test   al,0x10
  403cac:	0f 85 64 01 00 00    	jne    403e16 <bigint_create_from_u32+0x1d6>
  403cb2:	a8 08                	test   al,0x8
  403cb4:	0f 85 71 01 00 00    	jne    403e2b <bigint_create_from_u32+0x1eb>
  403cba:	a8 04                	test   al,0x4
  403cbc:	0f 85 78 01 00 00    	jne    403e3a <bigint_create_from_u32+0x1fa>
  403cc2:	a8 02                	test   al,0x2
  403cc4:	0f 85 78 01 00 00    	jne    403e42 <bigint_create_from_u32+0x202>
  403cca:	84 c0                	test   al,al
  403ccc:	0f 85 8a 01 00 00    	jne    403e5c <bigint_create_from_u32+0x21c>
  403cd2:	89 d8                	mov    eax,ebx
  403cd4:	c1 e8 10             	shr    eax,0x10
  403cd7:	84 c0                	test   al,al
  403cd9:	0f 88 72 01 00 00    	js     403e51 <bigint_create_from_u32+0x211>
  403cdf:	a8 40                	test   al,0x40
  403ce1:	0f 85 84 01 00 00    	jne    403e6b <bigint_create_from_u32+0x22b>
  403ce7:	a8 20                	test   al,0x20
  403ce9:	0f 85 e1 00 00 00    	jne    403dd0 <bigint_create_from_u32+0x190>
  403cef:	a8 10                	test   al,0x10
  403cf1:	0f 85 7c 01 00 00    	jne    403e73 <bigint_create_from_u32+0x233>
  403cf7:	a8 08                	test   al,0x8
  403cf9:	0f 85 7c 01 00 00    	jne    403e7b <bigint_create_from_u32+0x23b>
  403cff:	a8 04                	test   al,0x4
  403d01:	0f 85 7c 01 00 00    	jne    403e83 <bigint_create_from_u32+0x243>
  403d07:	a8 02                	test   al,0x2
  403d09:	0f 85 7f 01 00 00    	jne    403e8e <bigint_create_from_u32+0x24e>
  403d0f:	84 c0                	test   al,al
  403d11:	0f 85 7f 01 00 00    	jne    403e96 <bigint_create_from_u32+0x256>
  403d17:	84 ff                	test   bh,bh
  403d19:	0f b6 c7             	movzx  eax,bh
  403d1c:	0f 88 7c 01 00 00    	js     403e9e <bigint_create_from_u32+0x25e>
  403d22:	a8 40                	test   al,0x40
  403d24:	0f 85 7f 01 00 00    	jne    403ea9 <bigint_create_from_u32+0x269>
  403d2a:	a8 20                	test   al,0x20
  403d2c:	0f 85 82 01 00 00    	jne    403eb4 <bigint_create_from_u32+0x274>
  403d32:	a8 10                	test   al,0x10
  403d34:	0f 85 85 01 00 00    	jne    403ebf <bigint_create_from_u32+0x27f>
  403d3a:	a8 08                	test   al,0x8
  403d3c:	0f 85 88 01 00 00    	jne    403eca <bigint_create_from_u32+0x28a>
  403d42:	a8 04                	test   al,0x4
  403d44:	0f 85 8b 01 00 00    	jne    403ed5 <bigint_create_from_u32+0x295>
  403d4a:	a8 02                	test   al,0x2
  403d4c:	0f 85 8e 01 00 00    	jne    403ee0 <bigint_create_from_u32+0x2a0>
  403d52:	84 c0                	test   al,al
  403d54:	0f 85 a7 01 00 00    	jne    403f01 <bigint_create_from_u32+0x2c1>
  403d5a:	84 db                	test   bl,bl
  403d5c:	0f 88 89 01 00 00    	js     403eeb <bigint_create_from_u32+0x2ab>
  403d62:	f6 c3 40             	test   bl,0x40
  403d65:	0f 85 a1 01 00 00    	jne    403f0c <bigint_create_from_u32+0x2cc>
  403d6b:	f6 c3 20             	test   bl,0x20
  403d6e:	0f 85 82 01 00 00    	jne    403ef6 <bigint_create_from_u32+0x2b6>
  403d74:	f6 c3 10             	test   bl,0x10
  403d77:	0f 85 9a 01 00 00    	jne    403f17 <bigint_create_from_u32+0x2d7>
  403d7d:	f6 c3 08             	test   bl,0x8
  403d80:	0f 85 9c 01 00 00    	jne    403f22 <bigint_create_from_u32+0x2e2>
  403d86:	f6 c3 04             	test   bl,0x4
  403d89:	75 5a                	jne    403de5 <bigint_create_from_u32+0x1a5>
  403d8b:	f6 c3 02             	test   bl,0x2
  403d8e:	0f 85 99 01 00 00    	jne    403f2d <bigint_create_from_u32+0x2ed>
  403d94:	84 db                	test   bl,bl
  403d96:	0f 85 9c 01 00 00    	jne    403f38 <bigint_create_from_u32+0x2f8>
  403d9c:	45 89 6c 24 0c       	mov    DWORD PTR [r12+0xc],r13d
  403da1:	5b                   	pop    rbx
  403da2:	41 5c                	pop    r12
  403da4:	41 5d                	pop    r13
  403da6:	c3                   	ret
  403da7:	66 0f 1f 84 00 00 00 	nop    WORD PTR [rax+rax*1+0x0]
  403dae:	00 00 
  403db0:	bf 58 91 41 00       	mov    edi,0x419158
  403db5:	e8 16 c6 ff ff       	call   4003d0 <puts@plt>
  403dba:	bf 98 91 41 00       	mov    edi,0x419198
  403dbf:	31 c0                	xor    eax,eax
  403dc1:	e8 6a c6 ff ff       	call   400430 <printf@plt>
  403dc6:	bf 01 00 00 00       	mov    edi,0x1
  403dcb:	e8 70 c7 ff ff       	call   400540 <exit@plt>
  403dd0:	41 bd 18 00 00 00    	mov    r13d,0x18
  403dd6:	41 83 ed 02          	sub    r13d,0x2
  403dda:	45 89 6c 24 0c       	mov    DWORD PTR [r12+0xc],r13d
  403ddf:	5b                   	pop    rbx
  403de0:	41 5c                	pop    r12
  403de2:	41 5d                	pop    r13
  403de4:	c3                   	ret
  403de5:	41 bd 08 00 00 00    	mov    r13d,0x8
  403deb:	41 83 ed 05          	sub    r13d,0x5
  403def:	eb ab                	jmp    403d9c <bigint_create_from_u32+0x15c>
  403df1:	41 bd 20 00 00 00    	mov    r13d,0x20
  403df7:	eb a3                	jmp    403d9c <bigint_create_from_u32+0x15c>
  403df9:	41 bd 20 00 00 00    	mov    r13d,0x20
  403dff:	41 83 ed 01          	sub    r13d,0x1
  403e03:	45 89 6c 24 0c       	mov    DWORD PTR [r12+0xc],r13d
  403e08:	5b                   	pop    rbx
  403e09:	41 5c                	pop    r12
  403e0b:	41 5d                	pop    r13
  403e0d:	c3                   	ret
  403e0e:	41 bd 20 00 00 00    	mov    r13d,0x20
  403e14:	eb c0                	jmp    403dd6 <bigint_create_from_u32+0x196>
  403e16:	41 bd 20 00 00 00    	mov    r13d,0x20
  403e1c:	41 83 ed 03          	sub    r13d,0x3
  403e20:	45 89 6c 24 0c       	mov    DWORD PTR [r12+0xc],r13d
  403e25:	5b                   	pop    rbx
  403e26:	41 5c                	pop    r12
  403e28:	41 5d                	pop    r13
  403e2a:	c3                   	ret
  403e2b:	41 bd 20 00 00 00    	mov    r13d,0x20
  403e31:	41 83 ed 04          	sub    r13d,0x4
  403e35:	e9 62 ff ff ff       	jmp    403d9c <bigint_create_from_u32+0x15c>
  403e3a:	41 bd 20 00 00 00    	mov    r13d,0x20
  403e40:	eb a9                	jmp    403deb <bigint_create_from_u32+0x1ab>
  403e42:	41 bd 20 00 00 00    	mov    r13d,0x20
  403e48:	41 83 ed 06          	sub    r13d,0x6
  403e4c:	e9 4b ff ff ff       	jmp    403d9c <bigint_create_from_u32+0x15c>
  403e51:	41 bd 18 00 00 00    	mov    r13d,0x18
  403e57:	e9 40 ff ff ff       	jmp    403d9c <bigint_create_from_u32+0x15c>
  403e5c:	41 bd 20 00 00 00    	mov    r13d,0x20
  403e62:	41 83 ed 07          	sub    r13d,0x7
  403e66:	e9 31 ff ff ff       	jmp    403d9c <bigint_create_from_u32+0x15c>
  403e6b:	41 bd 18 00 00 00    	mov    r13d,0x18
  403e71:	eb 8c                	jmp    403dff <bigint_create_from_u32+0x1bf>
  403e73:	41 bd 18 00 00 00    	mov    r13d,0x18
  403e79:	eb a1                	jmp    403e1c <bigint_create_from_u32+0x1dc>
  403e7b:	41 bd 18 00 00 00    	mov    r13d,0x18
  403e81:	eb ae                	jmp    403e31 <bigint_create_from_u32+0x1f1>
  403e83:	41 bd 18 00 00 00    	mov    r13d,0x18
  403e89:	e9 5d ff ff ff       	jmp    403deb <bigint_create_from_u32+0x1ab>
  403e8e:	41 bd 18 00 00 00    	mov    r13d,0x18
  403e94:	eb b2                	jmp    403e48 <bigint_create_from_u32+0x208>
  403e96:	41 bd 18 00 00 00    	mov    r13d,0x18
  403e9c:	eb c4                	jmp    403e62 <bigint_create_from_u32+0x222>
  403e9e:	41 bd 10 00 00 00    	mov    r13d,0x10
  403ea4:	e9 f3 fe ff ff       	jmp    403d9c <bigint_create_from_u32+0x15c>
  403ea9:	41 bd 10 00 00 00    	mov    r13d,0x10
  403eaf:	e9 4b ff ff ff       	jmp    403dff <bigint_create_from_u32+0x1bf>
  403eb4:	41 bd 10 00 00 00    	mov    r13d,0x10
  403eba:	e9 17 ff ff ff       	jmp    403dd6 <bigint_create_from_u32+0x196>
  403ebf:	41 bd 10 00 00 00    	mov    r13d,0x10
  403ec5:	e9 52 ff ff ff       	jmp    403e1c <bigint_create_from_u32+0x1dc>
  403eca:	41 bd 10 00 00 00    	mov    r13d,0x10
  403ed0:	e9 5c ff ff ff       	jmp    403e31 <bigint_create_from_u32+0x1f1>
  403ed5:	41 bd 10 00 00 00    	mov    r13d,0x10
  403edb:	e9 0b ff ff ff       	jmp    403deb <bigint_create_from_u32+0x1ab>
  403ee0:	41 bd 10 00 00 00    	mov    r13d,0x10
  403ee6:	e9 5d ff ff ff       	jmp    403e48 <bigint_create_from_u32+0x208>
  403eeb:	41 bd 08 00 00 00    	mov    r13d,0x8
  403ef1:	e9 a6 fe ff ff       	jmp    403d9c <bigint_create_from_u32+0x15c>
  403ef6:	41 bd 08 00 00 00    	mov    r13d,0x8
  403efc:	e9 d5 fe ff ff       	jmp    403dd6 <bigint_create_from_u32+0x196>
  403f01:	41 bd 10 00 00 00    	mov    r13d,0x10
  403f07:	e9 56 ff ff ff       	jmp    403e62 <bigint_create_from_u32+0x222>
  403f0c:	41 bd 08 00 00 00    	mov    r13d,0x8
  403f12:	e9 e8 fe ff ff       	jmp    403dff <bigint_create_from_u32+0x1bf>
  403f17:	41 bd 08 00 00 00    	mov    r13d,0x8
  403f1d:	e9 fa fe ff ff       	jmp    403e1c <bigint_create_from_u32+0x1dc>
  403f22:	41 bd 08 00 00 00    	mov    r13d,0x8
  403f28:	e9 04 ff ff ff       	jmp    403e31 <bigint_create_from_u32+0x1f1>
  403f2d:	41 bd 08 00 00 00    	mov    r13d,0x8
  403f33:	e9 10 ff ff ff       	jmp    403e48 <bigint_create_from_u32+0x208>
  403f38:	41 bd 08 00 00 00    	mov    r13d,0x8
  403f3e:	e9 1f ff ff ff       	jmp    403e62 <bigint_create_from_u32+0x222>
  403f43:	66 90                	xchg   ax,ax
  403f45:	66 66 2e 0f 1f 84 00 	data16 cs nop WORD PTR [rax+rax*1+0x0]
  403f4c:	00 00 00 00 

0000000000403f50 <bigint_cleanup>:
  403f50:	48 8b 3f             	mov    rdi,QWORD PTR [rdi]
  403f53:	e9 18 c4 ff ff       	jmp    400370 <free@plt>
  403f58:	0f 1f 84 00 00 00 00 	nop    DWORD PTR [rax+rax*1+0x0]
  403f5f:	00 

0000000000403f60 <bigint_nullify>:
  403f60:	53                   	push   rbx
  403f61:	8b 57 08             	mov    edx,DWORD PTR [rdi+0x8]
  403f64:	48 89 fb             	mov    rbx,rdi
  403f67:	31 f6                	xor    esi,esi
  403f69:	48 8b 3f             	mov    rdi,QWORD PTR [rdi]
  403f6c:	c1 ea 03             	shr    edx,0x3
  403f6f:	e8 dc c4 ff ff       	call   400450 <memset@plt>
  403f74:	c7 43 0c 00 00 00 00 	mov    DWORD PTR [rbx+0xc],0x0
  403f7b:	5b                   	pop    rbx
  403f7c:	c3                   	ret
  403f7d:	0f 1f 00             	nop    DWORD PTR [rax]

0000000000403f80 <bigint_remake>:
  403f80:	41 54                	push   r12
  403f82:	41 89 d4             	mov    r12d,edx
  403f85:	53                   	push   rbx
  403f86:	48 89 fb             	mov    rbx,rdi
  403f89:	48 83 ec 18          	sub    rsp,0x18
  403f8d:	39 73 08             	cmp    DWORD PTR [rbx+0x8],esi
  403f90:	48 8b 3f             	mov    rdi,QWORD PTR [rdi]
  403f93:	0f 85 a7 01 00 00    	jne    404140 <bigint_remake+0x1c0>
  403f99:	89 f2                	mov    edx,esi
  403f9b:	31 f6                	xor    esi,esi
  403f9d:	c1 ea 03             	shr    edx,0x3
  403fa0:	e8 ab c4 ff ff       	call   400450 <memset@plt>
  403fa5:	48 8b 03             	mov    rax,QWORD PTR [rbx]
  403fa8:	c7 43 0c 00 00 00 00 	mov    DWORD PTR [rbx+0xc],0x0
  403faf:	44 89 20             	mov    DWORD PTR [rax],r12d
  403fb2:	48 8b 13             	mov    rdx,QWORD PTR [rbx]
  403fb5:	0f b6 42 03          	movzx  eax,BYTE PTR [rdx+0x3]
  403fb9:	84 c0                	test   al,al
  403fbb:	0f 88 bf 01 00 00    	js     404180 <bigint_remake+0x200>
  403fc1:	a8 40                	test   al,0x40
  403fc3:	0f 85 18 01 00 00    	jne    4040e1 <bigint_remake+0x161>
  403fc9:	a8 20                	test   al,0x20
  403fcb:	0f 85 23 01 00 00    	jne    4040f4 <bigint_remake+0x174>
  403fd1:	a8 10                	test   al,0x10
  403fd3:	0f 85 2e 01 00 00    	jne    404107 <bigint_remake+0x187>
  403fd9:	a8 08                	test   al,0x8
  403fdb:	0f 85 39 01 00 00    	jne    40411a <bigint_remake+0x19a>
  403fe1:	a8 04                	test   al,0x4
  403fe3:	0f 85 44 01 00 00    	jne    40412d <bigint_remake+0x1ad>
  403fe9:	a8 02                	test   al,0x2
  403feb:	0f 85 6e 01 00 00    	jne    40415f <bigint_remake+0x1df>
  403ff1:	84 c0                	test   al,al
  403ff3:	0f 85 9b 01 00 00    	jne    404194 <bigint_remake+0x214>
  403ff9:	0f b6 42 02          	movzx  eax,BYTE PTR [rdx+0x2]
  403ffd:	84 c0                	test   al,al
  403fff:	0f 88 85 01 00 00    	js     40418a <bigint_remake+0x20a>
  404005:	a8 40                	test   al,0x40
  404007:	0f 85 8e 01 00 00    	jne    40419b <bigint_remake+0x21b>
  40400d:	a8 20                	test   al,0x20
  40400f:	0f 85 90 01 00 00    	jne    4041a5 <bigint_remake+0x225>
  404015:	a8 10                	test   al,0x10
  404017:	0f 85 4f 01 00 00    	jne    40416c <bigint_remake+0x1ec>
  40401d:	a8 08                	test   al,0x8
  40401f:	0f 85 8a 01 00 00    	jne    4041af <bigint_remake+0x22f>
  404025:	a8 04                	test   al,0x4
  404027:	0f 85 8c 01 00 00    	jne    4041b9 <bigint_remake+0x239>
  40402d:	a8 02                	test   al,0x2
  40402f:	0f 85 8e 01 00 00    	jne    4041c3 <bigint_remake+0x243>
  404035:	84 c0                	test   al,al
  404037:	0f 85 8d 01 00 00    	jne    4041ca <bigint_remake+0x24a>
  40403d:	0f b6 42 01          	movzx  eax,BYTE PTR [rdx+0x1]
  404041:	84 c0                	test   al,al
  404043:	0f 88 88 01 00 00    	js     4041d1 <bigint_remake+0x251>
  404049:	a8 40                	test   al,0x40
  40404b:	0f 85 8a 01 00 00    	jne    4041db <bigint_remake+0x25b>
  404051:	a8 20                	test   al,0x20
  404053:	0f 85 8c 01 00 00    	jne    4041e5 <bigint_remake+0x265>
  404059:	a8 10                	test   al,0x10
  40405b:	0f 85 8e 01 00 00    	jne    4041ef <bigint_remake+0x26f>
  404061:	a8 08                	test   al,0x8
  404063:	0f 85 90 01 00 00    	jne    4041f9 <bigint_remake+0x279>
  404069:	a8 04                	test   al,0x4
  40406b:	0f 85 92 01 00 00    	jne    404203 <bigint_remake+0x283>
  404071:	a8 02                	test   al,0x2
  404073:	0f 85 94 01 00 00    	jne    40420d <bigint_remake+0x28d>
  404079:	84 c0                	test   al,al
  40407b:	0f 85 a0 01 00 00    	jne    404221 <bigint_remake+0x2a1>
  404081:	0f b6 12             	movzx  edx,BYTE PTR [rdx]
  404084:	84 d2                	test   dl,dl
  404086:	0f 88 8b 01 00 00    	js     404217 <bigint_remake+0x297>
  40408c:	f6 c2 40             	test   dl,0x40
  40408f:	b8 08 00 00 00       	mov    eax,0x8
  404094:	75 50                	jne    4040e6 <bigint_remake+0x166>
  404096:	f6 c2 20             	test   dl,0x20
  404099:	b8 08 00 00 00       	mov    eax,0x8
  40409e:	75 59                	jne    4040f9 <bigint_remake+0x179>
  4040a0:	f6 c2 10             	test   dl,0x10
  4040a3:	b8 08 00 00 00       	mov    eax,0x8
  4040a8:	75 62                	jne    40410c <bigint_remake+0x18c>
  4040aa:	f6 c2 08             	test   dl,0x8
  4040ad:	b8 08 00 00 00       	mov    eax,0x8
  4040b2:	75 6b                	jne    40411f <bigint_remake+0x19f>
  4040b4:	f6 c2 04             	test   dl,0x4
  4040b7:	b8 08 00 00 00       	mov    eax,0x8
  4040bc:	75 74                	jne    404132 <bigint_remake+0x1b2>
  4040be:	f6 c2 02             	test   dl,0x2
  4040c1:	b8 08 00 00 00       	mov    eax,0x8
  4040c6:	0f 85 98 00 00 00    	jne    404164 <bigint_remake+0x1e4>
  4040cc:	31 c0                	xor    eax,eax
  4040ce:	84 d2                	test   dl,dl
  4040d0:	0f 85 9d 00 00 00    	jne    404173 <bigint_remake+0x1f3>
  4040d6:	89 43 0c             	mov    DWORD PTR [rbx+0xc],eax
  4040d9:	48 83 c4 18          	add    rsp,0x18
  4040dd:	5b                   	pop    rbx
  4040de:	41 5c                	pop    r12
  4040e0:	c3                   	ret
  4040e1:	b8 20 00 00 00       	mov    eax,0x20
  4040e6:	83 e8 01             	sub    eax,0x1
  4040e9:	89 43 0c             	mov    DWORD PTR [rbx+0xc],eax
  4040ec:	48 83 c4 18          	add    rsp,0x18
  4040f0:	5b                   	pop    rbx
  4040f1:	41 5c                	pop    r12
  4040f3:	c3                   	ret
  4040f4:	b8 20 00 00 00       	mov    eax,0x20
  4040f9:	83 e8 02             	sub    eax,0x2
  4040fc:	89 43 0c             	mov    DWORD PTR [rbx+0xc],eax
  4040ff:	48 83 c4 18          	add    rsp,0x18
  404103:	5b                   	pop    rbx
  404104:	41 5c                	pop    r12
  404106:	c3                   	ret
  404107:	b8 20 00 00 00       	mov    eax,0x20
  40410c:	83 e8 03             	sub    eax,0x3
  40410f:	89 43 0c             	mov    DWORD PTR [rbx+0xc],eax
  404112:	48 83 c4 18          	add    rsp,0x18
  404116:	5b                   	pop    rbx
  404117:	41 5c                	pop    r12
  404119:	c3                   	ret
  40411a:	b8 20 00 00 00       	mov    eax,0x20
  40411f:	83 e8 04             	sub    eax,0x4
  404122:	89 43 0c             	mov    DWORD PTR [rbx+0xc],eax
  404125:	48 83 c4 18          	add    rsp,0x18
  404129:	5b                   	pop    rbx
  40412a:	41 5c                	pop    r12
  40412c:	c3                   	ret
  40412d:	b8 20 00 00 00       	mov    eax,0x20
  404132:	83 e8 05             	sub    eax,0x5
  404135:	89 43 0c             	mov    DWORD PTR [rbx+0xc],eax
  404138:	48 83 c4 18          	add    rsp,0x18
  40413c:	5b                   	pop    rbx
  40413d:	41 5c                	pop    r12
  40413f:	c3                   	ret
  404140:	89 74 24 0c          	mov    DWORD PTR [rsp+0xc],esi
  404144:	e8 27 c2 ff ff       	call   400370 <free@plt>
  404149:	8b 74 24 0c          	mov    esi,DWORD PTR [rsp+0xc]
  40414d:	48 83 c4 18          	add    rsp,0x18
  404151:	44 89 e2             	mov    edx,r12d
  404154:	48 89 df             	mov    rdi,rbx
  404157:	5b                   	pop    rbx
  404158:	41 5c                	pop    r12
  40415a:	e9 e1 fa ff ff       	jmp    403c40 <bigint_create_from_u32>
  40415f:	b8 20 00 00 00       	mov    eax,0x20
  404164:	83 e8 06             	sub    eax,0x6
  404167:	e9 6a ff ff ff       	jmp    4040d6 <bigint_remake+0x156>
  40416c:	b8 18 00 00 00       	mov    eax,0x18
  404171:	eb 99                	jmp    40410c <bigint_remake+0x18c>
  404173:	b8 08 00 00 00       	mov    eax,0x8
  404178:	83 e8 07             	sub    eax,0x7
  40417b:	e9 56 ff ff ff       	jmp    4040d6 <bigint_remake+0x156>
  404180:	b8 20 00 00 00       	mov    eax,0x20
  404185:	e9 4c ff ff ff       	jmp    4040d6 <bigint_remake+0x156>
  40418a:	b8 18 00 00 00       	mov    eax,0x18
  40418f:	e9 42 ff ff ff       	jmp    4040d6 <bigint_remake+0x156>
  404194:	b8 20 00 00 00       	mov    eax,0x20
  404199:	eb dd                	jmp    404178 <bigint_remake+0x1f8>
  40419b:	b8 18 00 00 00       	mov    eax,0x18
  4041a0:	e9 41 ff ff ff       	jmp    4040e6 <bigint_remake+0x166>
  4041a5:	b8 18 00 00 00       	mov    eax,0x18
  4041aa:	e9 4a ff ff ff       	jmp    4040f9 <bigint_remake+0x179>
  4041af:	b8 18 00 00 00       	mov    eax,0x18
  4041b4:	e9 66 ff ff ff       	jmp    40411f <bigint_remake+0x19f>
  4041b9:	b8 18 00 00 00       	mov    eax,0x18
  4041be:	e9 6f ff ff ff       	jmp    404132 <bigint_remake+0x1b2>
  4041c3:	b8 18 00 00 00       	mov    eax,0x18
  4041c8:	eb 9a                	jmp    404164 <bigint_remake+0x1e4>
  4041ca:	b8 18 00 00 00       	mov    eax,0x18
  4041cf:	eb a7                	jmp    404178 <bigint_remake+0x1f8>
  4041d1:	b8 10 00 00 00       	mov    eax,0x10
  4041d6:	e9 fb fe ff ff       	jmp    4040d6 <bigint_remake+0x156>
  4041db:	b8 10 00 00 00       	mov    eax,0x10
  4041e0:	e9 01 ff ff ff       	jmp    4040e6 <bigint_remake+0x166>
  4041e5:	b8 10 00 00 00       	mov    eax,0x10
  4041ea:	e9 0a ff ff ff       	jmp    4040f9 <bigint_remake+0x179>
  4041ef:	b8 10 00 00 00       	mov    eax,0x10
  4041f4:	e9 13 ff ff ff       	jmp    40410c <bigint_remake+0x18c>
  4041f9:	b8 10 00 00 00       	mov    eax,0x10
  4041fe:	e9 1c ff ff ff       	jmp    40411f <bigint_remake+0x19f>
  404203:	b8 10 00 00 00       	mov    eax,0x10
  404208:	e9 25 ff ff ff       	jmp    404132 <bigint_remake+0x1b2>
  40420d:	b8 10 00 00 00       	mov    eax,0x10
  404212:	e9 4d ff ff ff       	jmp    404164 <bigint_remake+0x1e4>
  404217:	b8 08 00 00 00       	mov    eax,0x8
  40421c:	e9 b5 fe ff ff       	jmp    4040d6 <bigint_remake+0x156>
  404221:	b8 10 00 00 00       	mov    eax,0x10
  404226:	e9 4d ff ff ff       	jmp    404178 <bigint_remake+0x1f8>
  40422b:	0f 1f 44 00 00       	nop    DWORD PTR [rax+rax*1+0x0]

0000000000404230 <bigint_get_ascii_bits>:
  404230:	41 54                	push   r12
  404232:	48 89 f1             	mov    rcx,rsi
  404235:	53                   	push   rbx
  404236:	48 89 fb             	mov    rbx,rdi
  404239:	48 83 ec 08          	sub    rsp,0x8
  40423d:	44 8b 67 0c          	mov    r12d,DWORD PTR [rdi+0xc]
  404241:	41 f6 c4 07          	test   r12b,0x7
  404245:	74 13                	je     40425a <bigint_get_ascii_bits+0x2a>
  404247:	66 0f 1f 84 00 00 00 	nop    WORD PTR [rax+rax*1+0x0]
  40424e:	00 00 
  404250:	41 83 c4 01          	add    r12d,0x1
  404254:	41 f6 c4 07          	test   r12b,0x7
  404258:	75 f6                	jne    404250 <bigint_get_ascii_bits+0x20>
  40425a:	44 89 e2             	mov    edx,r12d
  40425d:	31 f6                	xor    esi,esi
  40425f:	48 89 cf             	mov    rdi,rcx
  404262:	e8 e9 c1 ff ff       	call   400450 <memset@plt>
  404267:	44 89 e6             	mov    esi,r12d
  40426a:	48 89 c2             	mov    rdx,rax
  40426d:	c1 ee 03             	shr    esi,0x3
  404270:	31 c0                	xor    eax,eax
  404272:	41 c1 ec 03          	shr    r12d,0x3
  404276:	0f 84 94 00 00 00    	je     404310 <bigint_get_ascii_bits+0xe0>
  40427c:	0f 1f 40 00          	nop    DWORD PTR [rax+0x0]
  404280:	48 8b 0b             	mov    rcx,QWORD PTR [rbx]
  404283:	0f b6 0c 01          	movzx  ecx,BYTE PTR [rcx+rax*1]
  404287:	c0 e9 07             	shr    cl,0x7
  40428a:	83 c1 30             	add    ecx,0x30
  40428d:	88 0a                	mov    BYTE PTR [rdx],cl
  40428f:	48 8b 0b             	mov    rcx,QWORD PTR [rbx]
  404292:	f6 04 01 40          	test   BYTE PTR [rcx+rax*1],0x40
  404296:	0f 95 c1             	setne  cl
  404299:	83 c1 30             	add    ecx,0x30
  40429c:	88 4a 01             	mov    BYTE PTR [rdx+0x1],cl
  40429f:	48 8b 0b             	mov    rcx,QWORD PTR [rbx]
  4042a2:	f6 04 01 20          	test   BYTE PTR [rcx+rax*1],0x20
  4042a6:	0f 95 c1             	setne  cl
  4042a9:	83 c1 30             	add    ecx,0x30
  4042ac:	88 4a 02             	mov    BYTE PTR [rdx+0x2],cl
  4042af:	48 8b 0b             	mov    rcx,QWORD PTR [rbx]
  4042b2:	f6 04 01 10          	test   BYTE PTR [rcx+rax*1],0x10
  4042b6:	0f 95 c1             	setne  cl
  4042b9:	83 c1 30             	add    ecx,0x30
  4042bc:	88 4a 03             	mov    BYTE PTR [rdx+0x3],cl
  4042bf:	48 8b 0b             	mov    rcx,QWORD PTR [rbx]
  4042c2:	f6 04 01 08          	test   BYTE PTR [rcx+rax*1],0x8
  4042c6:	0f 95 c1             	setne  cl
  4042c9:	83 c1 30             	add    ecx,0x30
  4042cc:	88 4a 04             	mov    BYTE PTR [rdx+0x4],cl
  4042cf:	48 8b 0b             	mov    rcx,QWORD PTR [rbx]
  4042d2:	f6 04 01 04          	test   BYTE PTR [rcx+rax*1],0x4
  4042d6:	0f 95 c1             	setne  cl
  4042d9:	83 c1 30             	add    ecx,0x30
  4042dc:	88 4a 05             	mov    BYTE PTR [rdx+0x5],cl
  4042df:	48 8b 0b             	mov    rcx,QWORD PTR [rbx]
  4042e2:	f6 04 01 02          	test   BYTE PTR [rcx+rax*1],0x2
  4042e6:	0f 95 c1             	setne  cl
  4042e9:	48 83 c2 08          	add    rdx,0x8
  4042ed:	83 c1 30             	add    ecx,0x30
  4042f0:	88 4a fe             	mov    BYTE PTR [rdx-0x2],cl
  4042f3:	48 8b 0b             	mov    rcx,QWORD PTR [rbx]
  4042f6:	0f b6 0c 01          	movzx  ecx,BYTE PTR [rcx+rax*1]
  4042fa:	48 83 c0 01          	add    rax,0x1
  4042fe:	83 e1 01             	and    ecx,0x1
  404301:	83 c1 30             	add    ecx,0x30
  404304:	88 4a ff             	mov    BYTE PTR [rdx-0x1],cl
  404307:	48 39 c6             	cmp    rsi,rax
  40430a:	0f 85 70 ff ff ff    	jne    404280 <bigint_get_ascii_bits+0x50>
  404310:	48 83 c4 08          	add    rsp,0x8
  404314:	5b                   	pop    rbx
  404315:	41 5c                	pop    r12
  404317:	c3                   	ret
  404318:	0f 1f 84 00 00 00 00 	nop    DWORD PTR [rax+rax*1+0x0]
  40431f:	00 

0000000000404320 <bigint_print_bits>:
  404320:	55                   	push   rbp
  404321:	48 89 e5             	mov    rbp,rsp
  404324:	41 57                	push   r15
  404326:	41 56                	push   r14
  404328:	41 55                	push   r13
  40432a:	41 54                	push   r12
  40432c:	53                   	push   rbx
  40432d:	48 83 e4 e0          	and    rsp,0xffffffffffffffe0
  404331:	48 81 ec e0 00 00 00 	sub    rsp,0xe0
  404338:	44 8b 77 0c          	mov    r14d,DWORD PTR [rdi+0xc]
  40433c:	45 85 f6             	test   r14d,r14d
  40433f:	0f 84 9b 09 00 00    	je     404ce0 <bigint_print_bits+0x9c0>
  404345:	41 f6 c6 07          	test   r14b,0x7
  404349:	49 89 ff             	mov    r15,rdi
  40434c:	c5 f8 57 c0          	vxorps xmm0,xmm0,xmm0
  404350:	44 89 f0             	mov    eax,r14d
  404353:	0f 84 9f 09 00 00    	je     404cf8 <bigint_print_bits+0x9d8>
  404359:	0f 1f 80 00 00 00 00 	nop    DWORD PTR [rax+0x0]
  404360:	83 c0 01             	add    eax,0x1
  404363:	a8 07                	test   al,0x7
  404365:	75 f9                	jne    404360 <bigint_print_bits+0x40>
  404367:	c4 e1 fb 2a c0       	vcvtsi2sd xmm0,xmm0,rax
  40436c:	c5 fb 59 05 2c 6e 01 	vmulsd xmm0,xmm0,QWORD PTR [rip+0x16e2c]        # 41b1a0 <BLAKE2B_IV+0x1a0>
  404373:	00 
  404374:	bf 01 00 00 00       	mov    edi,0x1
  404379:	c4 61 fb 2c e0       	vcvttsd2si r12,xmm0
  40437e:	42 8d 1c e5 00 00 00 	lea    ebx,[r12*8+0x0]
  404385:	00 
  404386:	48 89 de             	mov    rsi,rbx
  404389:	49 89 dc             	mov    r12,rbx
  40438c:	e8 ef c0 ff ff       	call   400480 <calloc@plt>
  404391:	49 89 c5             	mov    r13,rax
  404394:	90                   	nop
  404395:	66 66 2e 0f 1f 84 00 	data16 cs nop WORD PTR [rax+rax*1+0x0]
  40439c:	00 00 00 00 
  4043a0:	41 83 c6 01          	add    r14d,0x1
  4043a4:	41 f6 c6 07          	test   r14b,0x7
  4043a8:	75 f6                	jne    4043a0 <bigint_print_bits+0x80>
  4043aa:	41 c1 ee 03          	shr    r14d,0x3
  4043ae:	0f 84 ad 08 00 00    	je     404c61 <bigint_print_bits+0x941>
  4043b4:	41 8d 46 ff          	lea    eax,[r14-0x1]
  4043b8:	49 8b 37             	mov    rsi,QWORD PTR [r15]
  4043bb:	83 f8 1e             	cmp    eax,0x1e
  4043be:	0f 86 76 09 00 00    	jbe    404d3a <bigint_print_bits+0xa1a>
  4043c4:	bf 30 30 30 30       	mov    edi,0x30303030
  4043c9:	c5 fd 76 c0          	vpcmpeqd ymm0,ymm0,ymm0
  4043cd:	44 89 f1             	mov    ecx,r14d
  4043d0:	48 89 f2             	mov    rdx,rsi
  4043d3:	c4 e2 7d 1c f0       	vpabsb ymm6,ymm0
  4043d8:	c5 79 6e c7          	vmovd  xmm8,edi
  4043dc:	c1 e9 05             	shr    ecx,0x5
  4043df:	4c 89 e8             	mov    rax,r13
  4043e2:	bf 02 02 02 02       	mov    edi,0x2020202
  4043e7:	48 c1 e1 05          	shl    rcx,0x5
  4043eb:	c5 d9 ef e4          	vpxor  xmm4,xmm4,xmm4
  4043ef:	c5 fd 7f b4 24 c0 00 	vmovdqa YMMWORD PTR [rsp+0xc0],ymm6
  4043f6:	00 00 
  4043f8:	c5 f9 6e f7          	vmovd  xmm6,edi
  4043fc:	bf 31 31 31 31       	mov    edi,0x31313131
  404401:	48 01 f1             	add    rcx,rsi
  404404:	c5 7d 6f 0d b4 6e 01 	vmovdqa ymm9,YMMWORD PTR [rip+0x16eb4]        # 41b2c0 <BLAKE2B_IV+0x2c0>
  40440b:	00 
  40440c:	c4 e2 7d 58 f6       	vpbroadcastd ymm6,xmm6
  404411:	c5 79 6e e7          	vmovd  xmm12,edi
  404415:	bf 04 04 04 04       	mov    edi,0x4040404
  40441a:	c5 fd 7f b4 24 a0 00 	vmovdqa YMMWORD PTR [rsp+0xa0],ymm6
  404421:	00 00 
  404423:	c5 f9 6e f7          	vmovd  xmm6,edi
  404427:	bf 08 08 08 08       	mov    edi,0x8080808
  40442c:	c4 42 7d 58 c0       	vpbroadcastd ymm8,xmm8
  404431:	c4 e2 7d 58 f6       	vpbroadcastd ymm6,xmm6
  404436:	c4 42 7d 58 e4       	vpbroadcastd ymm12,xmm12
  40443b:	c5 fd 7f b4 24 80 00 	vmovdqa YMMWORD PTR [rsp+0x80],ymm6
  404442:	00 00 
  404444:	c5 f9 6e f7          	vmovd  xmm6,edi
  404448:	bf 10 10 10 10       	mov    edi,0x10101010
  40444d:	c4 e2 7d 58 f6       	vpbroadcastd ymm6,xmm6
  404452:	c5 fd 7f 74 24 60    	vmovdqa YMMWORD PTR [rsp+0x60],ymm6
  404458:	c5 f9 6e f7          	vmovd  xmm6,edi
  40445c:	bf 20 20 20 20       	mov    edi,0x20202020
  404461:	c4 e2 7d 58 f6       	vpbroadcastd ymm6,xmm6
  404466:	c5 fd 7f 74 24 40    	vmovdqa YMMWORD PTR [rsp+0x40],ymm6
  40446c:	c5 f9 6e f7          	vmovd  xmm6,edi
  404470:	bf 40 40 40 40       	mov    edi,0x40404040
  404475:	c4 e2 7d 58 f6       	vpbroadcastd ymm6,xmm6
  40447a:	c5 fd 7f 74 24 20    	vmovdqa YMMWORD PTR [rsp+0x20],ymm6
  404480:	c5 f9 6e f7          	vmovd  xmm6,edi
  404484:	c4 e2 7d 58 f6       	vpbroadcastd ymm6,xmm6
  404489:	c5 fd 7f 34 24       	vmovdqa YMMWORD PTR [rsp],ymm6
  40448e:	66 90                	xchg   ax,ax
  404490:	c5 fe 6f 0a          	vmovdqu ymm1,YMMWORD PTR [rdx]
  404494:	48 83 c2 20          	add    rdx,0x20
  404498:	48 05 00 01 00 00    	add    rax,0x100
  40449e:	c5 f5 db 84 24 a0 00 	vpand  ymm0,ymm1,YMMWORD PTR [rsp+0xa0]
  4044a5:	00 00 
  4044a7:	c5 7d 6f bc 24 c0 00 	vmovdqa ymm15,YMMWORD PTR [rsp+0xc0]
  4044ae:	00 00 
  4044b0:	c5 f5 db 9c 24 80 00 	vpand  ymm3,ymm1,YMMWORD PTR [rsp+0x80]
  4044b7:	00 00 
  4044b9:	c5 fd 74 c4          	vpcmpeqb ymm0,ymm0,ymm4
  4044bd:	c4 c1 75 db d7       	vpand  ymm2,ymm1,ymm15
  4044c2:	c5 e5 74 dc          	vpcmpeqb ymm3,ymm3,ymm4
  4044c6:	c4 c1 6d fc d0       	vpaddb ymm2,ymm2,ymm8
  4044cb:	c5 fd 74 c4          	vpcmpeqb ymm0,ymm0,ymm4
  4044cf:	c5 e5 74 dc          	vpcmpeqb ymm3,ymm3,ymm4
  4044d3:	c4 c3 3d 4c c4 00    	vpblendvb ymm0,ymm8,ymm12,ymm0
  4044d9:	c5 fd 60 fa          	vpunpcklbw ymm7,ymm0,ymm2
  4044dd:	c5 fd 68 c2          	vpunpckhbw ymm0,ymm0,ymm2
  4044e1:	c4 c3 3d 4c dc 30    	vpblendvb ymm3,ymm8,ymm12,ymm3
  4044e7:	c4 e3 45 46 e8 20    	vperm2i128 ymm5,ymm7,ymm0,0x20
  4044ed:	c4 e3 45 46 f8 31    	vperm2i128 ymm7,ymm7,ymm0,0x31
  4044f3:	c5 f5 db 44 24 60    	vpand  ymm0,ymm1,YMMWORD PTR [rsp+0x60]
  4044f9:	c4 62 55 00 15 de 6c 	vpshufb ymm10,ymm5,YMMWORD PTR [rip+0x16cde]        # 41b1e0 <BLAKE2B_IV+0x1e0>
  404500:	01 00 
  404502:	c5 fd 74 c4          	vpcmpeqb ymm0,ymm0,ymm4
  404506:	c4 43 fd 00 d2 4e    	vpermq ymm10,ymm10,0x4e
  40450c:	c5 fd 74 c4          	vpcmpeqb ymm0,ymm0,ymm4
  404510:	c4 c3 3d 4c c4 00    	vpblendvb ymm0,ymm8,ymm12,ymm0
  404516:	c5 fd 60 d3          	vpunpcklbw ymm2,ymm0,ymm3
  40451a:	c5 fd 68 c3          	vpunpckhbw ymm0,ymm0,ymm3
  40451e:	c4 e3 6d 46 d8 20    	vperm2i128 ymm3,ymm2,ymm0,0x20
  404524:	c4 e3 6d 46 d0 31    	vperm2i128 ymm2,ymm2,ymm0,0x31
  40452a:	c4 e2 55 00 05 ed 6c 	vpshufb ymm0,ymm5,YMMWORD PTR [rip+0x16ced]        # 41b220 <BLAKE2B_IV+0x220>
  404531:	01 00 
  404533:	c4 62 65 00 1d 84 6c 	vpshufb ymm11,ymm3,YMMWORD PTR [rip+0x16c84]        # 41b1c0 <BLAKE2B_IV+0x1c0>
  40453a:	01 00 
  40453c:	c4 c1 7d eb c2       	vpor   ymm0,ymm0,ymm10
  404541:	c4 e2 65 00 35 b6 6c 	vpshufb ymm6,ymm3,YMMWORD PTR [rip+0x16cb6]        # 41b200 <BLAKE2B_IV+0x200>
  404548:	01 00 
  40454a:	c4 62 65 00 15 ed 6c 	vpshufb ymm10,ymm3,YMMWORD PTR [rip+0x16ced]        # 41b240 <BLAKE2B_IV+0x240>
  404551:	01 00 
  404553:	c4 43 fd 00 db 4e    	vpermq ymm11,ymm11,0x4e
  404559:	c4 e2 65 00 1d 1e 6d 	vpshufb ymm3,ymm3,YMMWORD PTR [rip+0x16d1e]        # 41b280 <BLAKE2B_IV+0x280>
  404560:	01 00 
  404562:	c4 c1 4d eb f3       	vpor   ymm6,ymm6,ymm11
  404567:	c4 43 fd 00 d2 4e    	vpermq ymm10,ymm10,0x4e
  40456d:	c4 62 6d 00 1d 4a 6c 	vpshufb ymm11,ymm2,YMMWORD PTR [rip+0x16c4a]        # 41b1c0 <BLAKE2B_IV+0x1c0>
  404574:	01 00 
  404576:	c5 cd eb f0          	vpor   ymm6,ymm6,ymm0
  40457a:	c4 c1 65 eb da       	vpor   ymm3,ymm3,ymm10
  40457f:	c4 43 fd 00 db 4e    	vpermq ymm11,ymm11,0x4e
  404585:	c4 e2 55 00 05 d2 6c 	vpshufb ymm0,ymm5,YMMWORD PTR [rip+0x16cd2]        # 41b260 <BLAKE2B_IV+0x260>
  40458c:	01 00 
  40458e:	c4 e2 55 00 2d 09 6d 	vpshufb ymm5,ymm5,YMMWORD PTR [rip+0x16d09]        # 41b2a0 <BLAKE2B_IV+0x2a0>
  404595:	01 00 
  404597:	c4 62 45 00 15 40 6c 	vpshufb ymm10,ymm7,YMMWORD PTR [rip+0x16c40]        # 41b1e0 <BLAKE2B_IV+0x1e0>
  40459e:	01 00 
  4045a0:	c4 e3 fd 00 c0 4e    	vpermq ymm0,ymm0,0x4e
  4045a6:	c4 43 fd 00 d2 4e    	vpermq ymm10,ymm10,0x4e
  4045ac:	c5 d5 eb e8          	vpor   ymm5,ymm5,ymm0
  4045b0:	c4 e2 45 00 05 67 6c 	vpshufb ymm0,ymm7,YMMWORD PTR [rip+0x16c67]        # 41b220 <BLAKE2B_IV+0x220>
  4045b7:	01 00 
  4045b9:	c5 e5 eb dd          	vpor   ymm3,ymm3,ymm5
  4045bd:	c4 c1 7d eb c2       	vpor   ymm0,ymm0,ymm10
  4045c2:	c4 e2 6d 00 2d 35 6c 	vpshufb ymm5,ymm2,YMMWORD PTR [rip+0x16c35]        # 41b200 <BLAKE2B_IV+0x200>
  4045c9:	01 00 
  4045cb:	c4 62 6d 00 15 6c 6c 	vpshufb ymm10,ymm2,YMMWORD PTR [rip+0x16c6c]        # 41b240 <BLAKE2B_IV+0x240>
  4045d2:	01 00 
  4045d4:	c4 c1 55 eb eb       	vpor   ymm5,ymm5,ymm11
  4045d9:	c4 e2 6d 00 15 9e 6c 	vpshufb ymm2,ymm2,YMMWORD PTR [rip+0x16c9e]        # 41b280 <BLAKE2B_IV+0x280>
  4045e0:	01 00 
  4045e2:	c5 d5 eb e8          	vpor   ymm5,ymm5,ymm0
  4045e6:	c4 43 fd 00 d2 4e    	vpermq ymm10,ymm10,0x4e
  4045ec:	c5 75 db 1c 24       	vpand  ymm11,ymm1,YMMWORD PTR [rsp]
  4045f1:	c4 e2 45 00 05 66 6c 	vpshufb ymm0,ymm7,YMMWORD PTR [rip+0x16c66]        # 41b260 <BLAKE2B_IV+0x260>
  4045f8:	01 00 
  4045fa:	c4 c1 6d eb d2       	vpor   ymm2,ymm2,ymm10
  4045ff:	c4 e2 45 00 3d 98 6c 	vpshufb ymm7,ymm7,YMMWORD PTR [rip+0x16c98]        # 41b2a0 <BLAKE2B_IV+0x2a0>
  404606:	01 00 
  404608:	c4 e3 fd 00 c0 4e    	vpermq ymm0,ymm0,0x4e
  40460e:	c5 25 74 dc          	vpcmpeqb ymm11,ymm11,ymm4
  404612:	c5 75 db 54 24 40    	vpand  ymm10,ymm1,YMMWORD PTR [rsp+0x40]
  404618:	c5 c5 eb f8          	vpor   ymm7,ymm7,ymm0
  40461c:	c5 f5 db 44 24 20    	vpand  ymm0,ymm1,YMMWORD PTR [rsp+0x20]
  404622:	c5 2d 74 d4          	vpcmpeqb ymm10,ymm10,ymm4
  404626:	c5 f5 71 d1 07       	vpsrlw ymm1,ymm1,0x7
  40462b:	c5 ed eb d7          	vpor   ymm2,ymm2,ymm7
  40462f:	c5 fd 74 c4          	vpcmpeqb ymm0,ymm0,ymm4
  404633:	c5 25 74 dc          	vpcmpeqb ymm11,ymm11,ymm4
  404637:	c4 c1 75 db cf       	vpand  ymm1,ymm1,ymm15
  40463c:	c4 c1 75 fc c8       	vpaddb ymm1,ymm1,ymm8
  404641:	c5 2d 74 d4          	vpcmpeqb ymm10,ymm10,ymm4
  404645:	c5 fd 74 c4          	vpcmpeqb ymm0,ymm0,ymm4
  404649:	c4 43 3d 4c dc b0    	vpblendvb ymm11,ymm8,ymm12,ymm11
  40464f:	c4 43 3d 4c d4 a0    	vpblendvb ymm10,ymm8,ymm12,ymm10
  404655:	c4 c3 3d 4c c4 00    	vpblendvb ymm0,ymm8,ymm12,ymm0
  40465b:	c4 c1 7d 60 fa       	vpunpcklbw ymm7,ymm0,ymm10
  404660:	c4 c1 7d 68 c2       	vpunpckhbw ymm0,ymm0,ymm10
  404665:	c4 63 45 46 d0 20    	vperm2i128 ymm10,ymm7,ymm0,0x20
  40466b:	c4 e3 45 46 f8 31    	vperm2i128 ymm7,ymm7,ymm0,0x31
  404671:	c4 c1 75 60 c3       	vpunpcklbw ymm0,ymm1,ymm11
  404676:	c4 62 2d 00 2d 61 6b 	vpshufb ymm13,ymm10,YMMWORD PTR [rip+0x16b61]        # 41b1e0 <BLAKE2B_IV+0x1e0>
  40467d:	01 00 
  40467f:	c4 c1 75 68 cb       	vpunpckhbw ymm1,ymm1,ymm11
  404684:	c4 63 7d 46 f9 20    	vperm2i128 ymm15,ymm0,ymm1,0x20
  40468a:	c4 43 fd 00 ed 4e    	vpermq ymm13,ymm13,0x4e
  404690:	c4 e3 7d 46 c1 31    	vperm2i128 ymm0,ymm0,ymm1,0x31
  404696:	c4 62 05 00 35 21 6b 	vpshufb ymm14,ymm15,YMMWORD PTR [rip+0x16b21]        # 41b1c0 <BLAKE2B_IV+0x1c0>
  40469d:	01 00 
  40469f:	c4 e2 2d 00 0d 78 6b 	vpshufb ymm1,ymm10,YMMWORD PTR [rip+0x16b78]        # 41b220 <BLAKE2B_IV+0x220>
  4046a6:	01 00 
  4046a8:	c4 62 05 00 1d 4f 6b 	vpshufb ymm11,ymm15,YMMWORD PTR [rip+0x16b4f]        # 41b200 <BLAKE2B_IV+0x200>
  4046af:	01 00 
  4046b1:	c4 43 fd 00 f6 4e    	vpermq ymm14,ymm14,0x4e
  4046b7:	c4 c1 75 eb cd       	vpor   ymm1,ymm1,ymm13
  4046bc:	c4 62 2d 00 2d 9b 6b 	vpshufb ymm13,ymm10,YMMWORD PTR [rip+0x16b9b]        # 41b260 <BLAKE2B_IV+0x260>
  4046c3:	01 00 
  4046c5:	c4 41 25 eb de       	vpor   ymm11,ymm11,ymm14
  4046ca:	c4 43 fd 00 ed 4e    	vpermq ymm13,ymm13,0x4e
  4046d0:	c4 62 05 00 35 67 6b 	vpshufb ymm14,ymm15,YMMWORD PTR [rip+0x16b67]        # 41b240 <BLAKE2B_IV+0x240>
  4046d7:	01 00 
  4046d9:	c5 25 eb d9          	vpor   ymm11,ymm11,ymm1
  4046dd:	c4 43 fd 00 f6 4e    	vpermq ymm14,ymm14,0x4e
  4046e3:	c4 e2 05 00 0d 94 6b 	vpshufb ymm1,ymm15,YMMWORD PTR [rip+0x16b94]        # 41b280 <BLAKE2B_IV+0x280>
  4046ea:	01 00 
  4046ec:	c4 62 2d 00 15 ab 6b 	vpshufb ymm10,ymm10,YMMWORD PTR [rip+0x16bab]        # 41b2a0 <BLAKE2B_IV+0x2a0>
  4046f3:	01 00 
  4046f5:	c4 c1 75 eb ce       	vpor   ymm1,ymm1,ymm14
  4046fa:	c4 62 7d 00 3d bd 6a 	vpshufb ymm15,ymm0,YMMWORD PTR [rip+0x16abd]        # 41b1c0 <BLAKE2B_IV+0x1c0>
  404701:	01 00 
  404703:	c4 41 2d eb d5       	vpor   ymm10,ymm10,ymm13
  404708:	c4 43 fd 00 ff 4e    	vpermq ymm15,ymm15,0x4e
  40470e:	c4 62 45 00 35 c9 6a 	vpshufb ymm14,ymm7,YMMWORD PTR [rip+0x16ac9]        # 41b1e0 <BLAKE2B_IV+0x1e0>
  404715:	01 00 
  404717:	c4 c1 75 eb ca       	vpor   ymm1,ymm1,ymm10
  40471c:	c4 43 fd 00 f6 4e    	vpermq ymm14,ymm14,0x4e
  404722:	c4 62 7d 00 15 d5 6a 	vpshufb ymm10,ymm0,YMMWORD PTR [rip+0x16ad5]        # 41b200 <BLAKE2B_IV+0x200>
  404729:	01 00 
  40472b:	c4 62 45 00 2d ec 6a 	vpshufb ymm13,ymm7,YMMWORD PTR [rip+0x16aec]        # 41b220 <BLAKE2B_IV+0x220>
  404732:	01 00 
  404734:	c4 41 2d eb d7       	vpor   ymm10,ymm10,ymm15
  404739:	c4 41 15 eb ee       	vpor   ymm13,ymm13,ymm14
  40473e:	c4 62 7d 00 35 f9 6a 	vpshufb ymm14,ymm0,YMMWORD PTR [rip+0x16af9]        # 41b240 <BLAKE2B_IV+0x240>
  404745:	01 00 
  404747:	c4 e2 7d 00 05 30 6b 	vpshufb ymm0,ymm0,YMMWORD PTR [rip+0x16b30]        # 41b280 <BLAKE2B_IV+0x280>
  40474e:	01 00 
  404750:	c4 41 2d eb d5       	vpor   ymm10,ymm10,ymm13
  404755:	c4 43 fd 00 f6 4e    	vpermq ymm14,ymm14,0x4e
  40475b:	c4 62 45 00 2d fc 6a 	vpshufb ymm13,ymm7,YMMWORD PTR [rip+0x16afc]        # 41b260 <BLAKE2B_IV+0x260>
  404762:	01 00 
  404764:	c4 43 fd 00 ed 4e    	vpermq ymm13,ymm13,0x4e
  40476a:	c4 c1 7d eb c6       	vpor   ymm0,ymm0,ymm14
  40476f:	c4 e2 45 00 3d 28 6b 	vpshufb ymm7,ymm7,YMMWORD PTR [rip+0x16b28]        # 41b2a0 <BLAKE2B_IV+0x2a0>
  404776:	01 00 
  404778:	c4 c1 45 eb fd       	vpor   ymm7,ymm7,ymm13
  40477d:	c5 fd eb c7          	vpor   ymm0,ymm0,ymm7
  404781:	c4 e3 25 38 fe 01    	vinserti128 ymm7,ymm11,xmm6,0x1
  404787:	c4 63 25 46 de 31    	vperm2i128 ymm11,ymm11,ymm6,0x31
  40478d:	c4 e3 75 38 f3 01    	vinserti128 ymm6,ymm1,xmm3,0x1
  404793:	c4 e3 75 46 cb 31    	vperm2i128 ymm1,ymm1,ymm3,0x31
  404799:	c4 e2 35 36 ff       	vpermd ymm7,ymm9,ymm7
  40479e:	c4 e2 35 36 c9       	vpermd ymm1,ymm9,ymm1
  4047a3:	c4 42 35 36 db       	vpermd ymm11,ymm9,ymm11
  4047a8:	c4 e2 35 36 f6       	vpermd ymm6,ymm9,ymm6
  4047ad:	c5 fe 7f b8 00 ff ff 	vmovdqu YMMWORD PTR [rax-0x100],ymm7
  4047b4:	ff 
  4047b5:	c5 fe 7f 88 60 ff ff 	vmovdqu YMMWORD PTR [rax-0xa0],ymm1
  4047bc:	ff 
  4047bd:	c4 e3 2d 38 cd 01    	vinserti128 ymm1,ymm10,xmm5,0x1
  4047c3:	c4 63 2d 46 d5 31    	vperm2i128 ymm10,ymm10,ymm5,0x31
  4047c9:	c4 e2 35 36 c9       	vpermd ymm1,ymm9,ymm1
  4047ce:	c4 42 35 36 d2       	vpermd ymm10,ymm9,ymm10
  4047d3:	c5 7e 7f 98 20 ff ff 	vmovdqu YMMWORD PTR [rax-0xe0],ymm11
  4047da:	ff 
  4047db:	c5 fe 7f 48 80       	vmovdqu YMMWORD PTR [rax-0x80],ymm1
  4047e0:	c4 e3 7d 38 ca 01    	vinserti128 ymm1,ymm0,xmm2,0x1
  4047e6:	c4 e3 7d 46 c2 31    	vperm2i128 ymm0,ymm0,ymm2,0x31
  4047ec:	c4 e2 35 36 c9       	vpermd ymm1,ymm9,ymm1
  4047f1:	c4 e2 35 36 c0       	vpermd ymm0,ymm9,ymm0
  4047f6:	c5 7e 7f 50 a0       	vmovdqu YMMWORD PTR [rax-0x60],ymm10
  4047fb:	c5 fe 7f b0 40 ff ff 	vmovdqu YMMWORD PTR [rax-0xc0],ymm6
  404802:	ff 
  404803:	c5 fe 7f 48 c0       	vmovdqu YMMWORD PTR [rax-0x40],ymm1
  404808:	c5 fe 7f 40 e0       	vmovdqu YMMWORD PTR [rax-0x20],ymm0
  40480d:	48 39 ca             	cmp    rdx,rcx
  404810:	0f 85 7a fc ff ff    	jne    404490 <bigint_print_bits+0x170>
  404816:	41 f6 c6 1f          	test   r14b,0x1f
  40481a:	0f 84 21 05 00 00    	je     404d41 <bigint_print_bits+0xa21>
  404820:	44 89 f1             	mov    ecx,r14d
  404823:	83 e1 e0             	and    ecx,0xffffffe0
  404826:	c5 f8 77             	vzeroupper
  404829:	44 89 f0             	mov    eax,r14d
  40482c:	29 c8                	sub    eax,ecx
  40482e:	8d 50 ff             	lea    edx,[rax-0x1]
  404831:	83 fa 0e             	cmp    edx,0xe
  404834:	0f 86 f7 04 00 00    	jbe    404d31 <bigint_print_bits+0xa11>
  40483a:	89 cf                	mov    edi,ecx
  40483c:	c5 e1 ef db          	vpxor  xmm3,xmm3,xmm3
  404840:	c5 f1 76 c9          	vpcmpeqd xmm1,xmm1,xmm1
  404844:	a8 0f                	test   al,0xf
  404846:	c5 fa 6f 34 3e       	vmovdqu xmm6,XMMWORD PTR [rsi+rdi*1]
  40484b:	49 8d 54 fd 00       	lea    rdx,[r13+rdi*8+0x0]
  404850:	bf 30 30 30 30       	mov    edi,0x30303030
  404855:	c4 e2 79 1c c9       	vpabsb xmm1,xmm1
  40485a:	c5 f9 6e ef          	vmovd  xmm5,edi
  40485e:	bf 02 02 02 02       	mov    edi,0x2020202
  404863:	c5 f9 6e d7          	vmovd  xmm2,edi
  404867:	bf 31 31 31 31       	mov    edi,0x31313131
  40486c:	c4 e2 79 58 ed       	vpbroadcastd xmm5,xmm5
  404871:	c4 e2 79 58 d2       	vpbroadcastd xmm2,xmm2
  404876:	c5 f9 6e e7          	vmovd  xmm4,edi
  40487a:	c5 c9 db c1          	vpand  xmm0,xmm6,xmm1
  40487e:	bf 04 04 04 04       	mov    edi,0x4040404
  404883:	c5 c9 db d2          	vpand  xmm2,xmm6,xmm2
  404887:	c4 e2 79 58 e4       	vpbroadcastd xmm4,xmm4
  40488c:	c5 f9 fc c5          	vpaddb xmm0,xmm0,xmm5
  404890:	c5 e9 74 d3          	vpcmpeqb xmm2,xmm2,xmm3
  404894:	c5 79 6e c7          	vmovd  xmm8,edi
  404898:	bf 08 08 08 08       	mov    edi,0x8080808
  40489d:	c4 42 79 58 c0       	vpbroadcastd xmm8,xmm8
  4048a2:	c4 41 49 db c0       	vpand  xmm8,xmm6,xmm8
  4048a7:	c5 e9 74 d3          	vpcmpeqb xmm2,xmm2,xmm3
  4048ab:	c5 39 74 c3          	vpcmpeqb xmm8,xmm8,xmm3
  4048af:	c4 e3 51 4c d4 20    	vpblendvb xmm2,xmm5,xmm4,xmm2
  4048b5:	c5 39 74 c3          	vpcmpeqb xmm8,xmm8,xmm3
  4048b9:	c5 69 60 d0          	vpunpcklbw xmm10,xmm2,xmm0
  4048bd:	c5 e9 68 d0          	vpunpckhbw xmm2,xmm2,xmm0
  4048c1:	c5 f9 6e c7          	vmovd  xmm0,edi
  4048c5:	bf 10 10 10 10       	mov    edi,0x10101010
  4048ca:	c4 e2 79 58 c0       	vpbroadcastd xmm0,xmm0
  4048cf:	c5 c9 db c0          	vpand  xmm0,xmm6,xmm0
  4048d3:	c4 63 51 4c c4 80    	vpblendvb xmm8,xmm5,xmm4,xmm8
  4048d9:	c5 f9 74 c3          	vpcmpeqb xmm0,xmm0,xmm3
  4048dd:	c5 f9 74 c3          	vpcmpeqb xmm0,xmm0,xmm3
  4048e1:	c4 e3 51 4c c4 00    	vpblendvb xmm0,xmm5,xmm4,xmm0
  4048e7:	c4 c1 79 60 f8       	vpunpcklbw xmm7,xmm0,xmm8
  4048ec:	c4 c1 79 68 c0       	vpunpckhbw xmm0,xmm0,xmm8
  4048f1:	c4 41 41 61 ca       	vpunpcklwd xmm9,xmm7,xmm10
  4048f6:	c4 c1 41 69 fa       	vpunpckhwd xmm7,xmm7,xmm10
  4048fb:	c5 79 6e d7          	vmovd  xmm10,edi
  4048ff:	bf 20 20 20 20       	mov    edi,0x20202020
  404904:	c5 79 61 c2          	vpunpcklwd xmm8,xmm0,xmm2
  404908:	c5 f9 69 c2          	vpunpckhwd xmm0,xmm0,xmm2
  40490c:	c5 f9 6e d7          	vmovd  xmm2,edi
  404910:	bf 40 40 40 40       	mov    edi,0x40404040
  404915:	c4 42 79 58 d2       	vpbroadcastd xmm10,xmm10
  40491a:	c4 e2 79 58 d2       	vpbroadcastd xmm2,xmm2
  40491f:	c4 41 49 db d2       	vpand  xmm10,xmm6,xmm10
  404924:	c5 c9 db d2          	vpand  xmm2,xmm6,xmm2
  404928:	c5 29 74 d3          	vpcmpeqb xmm10,xmm10,xmm3
  40492c:	c5 e9 74 d3          	vpcmpeqb xmm2,xmm2,xmm3
  404930:	c5 29 74 d3          	vpcmpeqb xmm10,xmm10,xmm3
  404934:	c5 e9 74 d3          	vpcmpeqb xmm2,xmm2,xmm3
  404938:	c4 63 51 4c d4 a0    	vpblendvb xmm10,xmm5,xmm4,xmm10
  40493e:	c4 e3 51 4c d4 20    	vpblendvb xmm2,xmm5,xmm4,xmm2
  404944:	c4 41 69 60 da       	vpunpcklbw xmm11,xmm2,xmm10
  404949:	c4 c1 69 68 d2       	vpunpckhbw xmm2,xmm2,xmm10
  40494e:	c5 79 6e d7          	vmovd  xmm10,edi
  404952:	c4 42 79 58 d2       	vpbroadcastd xmm10,xmm10
  404957:	c4 41 49 db d2       	vpand  xmm10,xmm6,xmm10
  40495c:	c5 c9 71 d6 07       	vpsrlw xmm6,xmm6,0x7
  404961:	c5 29 74 d3          	vpcmpeqb xmm10,xmm10,xmm3
  404965:	c5 f1 db ce          	vpand  xmm1,xmm1,xmm6
  404969:	c5 f1 fc cd          	vpaddb xmm1,xmm1,xmm5
  40496d:	c5 a9 74 db          	vpcmpeqb xmm3,xmm10,xmm3
  404971:	c4 e3 51 4c e4 30    	vpblendvb xmm4,xmm5,xmm4,xmm3
  404977:	c5 f1 60 dc          	vpunpcklbw xmm3,xmm1,xmm4
  40497b:	c5 f1 68 cc          	vpunpckhbw xmm1,xmm1,xmm4
  40497f:	c4 c1 61 61 eb       	vpunpcklwd xmm5,xmm3,xmm11
  404984:	c5 f1 61 e2          	vpunpcklwd xmm4,xmm1,xmm2
  404988:	c4 c1 61 69 db       	vpunpckhwd xmm3,xmm3,xmm11
  40498d:	c5 f1 69 ca          	vpunpckhwd xmm1,xmm1,xmm2
  404991:	c4 c1 51 62 d1       	vpunpckldq xmm2,xmm5,xmm9
  404996:	c4 c1 51 6a e9       	vpunpckhdq xmm5,xmm5,xmm9
  40499b:	c5 fa 7f 12          	vmovdqu XMMWORD PTR [rdx],xmm2
  40499f:	c5 e1 62 d7          	vpunpckldq xmm2,xmm3,xmm7
  4049a3:	c5 e1 6a df          	vpunpckhdq xmm3,xmm3,xmm7
  4049a7:	c5 fa 7f 52 20       	vmovdqu XMMWORD PTR [rdx+0x20],xmm2
  4049ac:	c4 c1 59 62 d0       	vpunpckldq xmm2,xmm4,xmm8
  4049b1:	c4 c1 59 6a e0       	vpunpckhdq xmm4,xmm4,xmm8
  4049b6:	c5 fa 7f 52 40       	vmovdqu XMMWORD PTR [rdx+0x40],xmm2
  4049bb:	c5 f1 62 d0          	vpunpckldq xmm2,xmm1,xmm0
  4049bf:	c5 f1 6a c8          	vpunpckhdq xmm1,xmm1,xmm0
  4049c3:	c5 fa 7f 6a 10       	vmovdqu XMMWORD PTR [rdx+0x10],xmm5
  4049c8:	c5 fa 7f 5a 30       	vmovdqu XMMWORD PTR [rdx+0x30],xmm3
  4049cd:	c5 fa 7f 62 50       	vmovdqu XMMWORD PTR [rdx+0x50],xmm4
  4049d2:	c5 fa 7f 52 60       	vmovdqu XMMWORD PTR [rdx+0x60],xmm2
  4049d7:	c5 fa 7f 4a 70       	vmovdqu XMMWORD PTR [rdx+0x70],xmm1
  4049dc:	0f 84 7f 02 00 00    	je     404c61 <bigint_print_bits+0x941>
  4049e2:	89 c2                	mov    edx,eax
  4049e4:	83 e2 f0             	and    edx,0xfffffff0
  4049e7:	8d 3c 11             	lea    edi,[rcx+rdx*1]
  4049ea:	29 d0                	sub    eax,edx
  4049ec:	44 8d 40 ff          	lea    r8d,[rax-0x1]
  4049f0:	41 83 f8 06          	cmp    r8d,0x6
  4049f4:	0f 86 b3 01 00 00    	jbe    404bad <bigint_print_bits+0x88d>
  4049fa:	01 d1                	add    ecx,edx
  4049fc:	c5 d9 ef e4          	vpxor  xmm4,xmm4,xmm4
  404a00:	a8 07                	test   al,0x7
  404a02:	c5 fa 7e 15 e6 68 01 	vmovq  xmm2,QWORD PTR [rip+0x168e6]        # 41b2f0 <BLAKE2B_IV+0x2f0>
  404a09:	00 
  404a0a:	89 c9                	mov    ecx,ecx
  404a0c:	c5 fa 7e 0d cc 68 01 	vmovq  xmm1,QWORD PTR [rip+0x168cc]        # 41b2e0 <BLAKE2B_IV+0x2e0>
  404a13:	00 
  404a14:	c5 fa 7e 1d cc 68 01 	vmovq  xmm3,QWORD PTR [rip+0x168cc]        # 41b2e8 <BLAKE2B_IV+0x2e8>
  404a1b:	00 
  404a1c:	c5 fa 7e 04 0e       	vmovq  xmm0,QWORD PTR [rsi+rcx*1]
  404a21:	c5 7a 7e 0d cf 68 01 	vmovq  xmm9,QWORD PTR [rip+0x168cf]        # 41b2f8 <BLAKE2B_IV+0x2f8>
  404a28:	00 
  404a29:	c5 fa 7e 2d cf 68 01 	vmovq  xmm5,QWORD PTR [rip+0x168cf]        # 41b300 <BLAKE2B_IV+0x300>
  404a30:	00 
  404a31:	c5 7a 7e 05 df 68 01 	vmovq  xmm8,QWORD PTR [rip+0x168df]        # 41b318 <BLAKE2B_IV+0x318>
  404a38:	00 
  404a39:	c5 f9 db d2          	vpand  xmm2,xmm0,xmm2
  404a3d:	c5 f9 db c9          	vpand  xmm1,xmm0,xmm1
  404a41:	c5 e9 74 d4          	vpcmpeqb xmm2,xmm2,xmm4
  404a45:	c5 f1 fc cb          	vpaddb xmm1,xmm1,xmm3
  404a49:	c5 f9 db ed          	vpand  xmm5,xmm0,xmm5
  404a4d:	c5 d1 74 ec          	vpcmpeqb xmm5,xmm5,xmm4
  404a51:	c4 41 79 db c0       	vpand  xmm8,xmm0,xmm8
  404a56:	c4 e3 31 4c d3 20    	vpblendvb xmm2,xmm9,xmm3,xmm2
  404a5c:	c5 e9 60 f9          	vpunpcklbw xmm7,xmm2,xmm1
  404a60:	c5 e9 60 d1          	vpunpcklbw xmm2,xmm2,xmm1
  404a64:	c5 fa 7e 0d 9c 68 01 	vmovq  xmm1,QWORD PTR [rip+0x1689c]        # 41b308 <BLAKE2B_IV+0x308>
  404a6b:	00 
  404a6c:	c4 e3 31 4c eb 50    	vpblendvb xmm5,xmm9,xmm3,xmm5
  404a72:	c5 f9 70 d2 4e       	vpshufd xmm2,xmm2,0x4e
  404a77:	c5 f9 db c9          	vpand  xmm1,xmm0,xmm1
  404a7b:	c5 f1 74 cc          	vpcmpeqb xmm1,xmm1,xmm4
  404a7f:	c4 e3 31 4c cb 10    	vpblendvb xmm1,xmm9,xmm3,xmm1
  404a85:	c5 f1 60 e5          	vpunpcklbw xmm4,xmm1,xmm5
  404a89:	c5 f1 60 cd          	vpunpcklbw xmm1,xmm1,xmm5
  404a8d:	c5 d9 61 f7          	vpunpcklwd xmm6,xmm4,xmm7
  404a91:	c5 d9 61 e7          	vpunpcklwd xmm4,xmm4,xmm7
  404a95:	c5 fa 7e 3d 73 68 01 	vmovq  xmm7,QWORD PTR [rip+0x16873]        # 41b310 <BLAKE2B_IV+0x310>
  404a9c:	00 
  404a9d:	c5 f9 70 c9 4e       	vpshufd xmm1,xmm1,0x4e
  404aa2:	c5 f1 61 ea          	vpunpcklwd xmm5,xmm1,xmm2
  404aa6:	c5 f1 61 ca          	vpunpcklwd xmm1,xmm1,xmm2
  404aaa:	c5 e9 ef d2          	vpxor  xmm2,xmm2,xmm2
  404aae:	c5 f9 db ff          	vpand  xmm7,xmm0,xmm7
  404ab2:	c5 39 74 c2          	vpcmpeqb xmm8,xmm8,xmm2
  404ab6:	c5 f9 70 e4 4e       	vpshufd xmm4,xmm4,0x4e
  404abb:	c5 c1 74 fa          	vpcmpeqb xmm7,xmm7,xmm2
  404abf:	c5 fa 7e 15 59 68 01 	vmovq  xmm2,QWORD PTR [rip+0x16859]        # 41b320 <BLAKE2B_IV+0x320>
  404ac6:	00 
  404ac7:	c5 f9 70 c9 4e       	vpshufd xmm1,xmm1,0x4e
  404acc:	c4 63 31 4c c3 80    	vpblendvb xmm8,xmm9,xmm3,xmm8
  404ad2:	c5 f9 db d2          	vpand  xmm2,xmm0,xmm2
  404ad6:	c4 e2 79 30 c0       	vpmovzxbw xmm0,xmm0
  404adb:	c4 e3 31 4c fb 70    	vpblendvb xmm7,xmm9,xmm3,xmm7
  404ae1:	c5 f9 71 d0 07       	vpsrlw xmm0,xmm0,0x7
  404ae6:	c4 e2 79 00 05 41 68 	vpshufb xmm0,xmm0,XMMWORD PTR [rip+0x16841]        # 41b330 <BLAKE2B_IV+0x330>
  404aed:	01 00 
  404aef:	c5 39 60 d7          	vpunpcklbw xmm10,xmm8,xmm7
  404af3:	c5 39 60 c7          	vpunpcklbw xmm8,xmm8,xmm7
  404af7:	c5 c1 ef ff          	vpxor  xmm7,xmm7,xmm7
  404afb:	c5 f9 fc c3          	vpaddb xmm0,xmm0,xmm3
  404aff:	c4 41 79 70 c0 4e    	vpshufd xmm8,xmm8,0x4e
  404b05:	c5 e9 74 d7          	vpcmpeqb xmm2,xmm2,xmm7
  404b09:	c4 e3 31 4c d3 20    	vpblendvb xmm2,xmm9,xmm3,xmm2
  404b0f:	c5 f9 60 da          	vpunpcklbw xmm3,xmm0,xmm2
  404b13:	c5 f9 60 c2          	vpunpcklbw xmm0,xmm0,xmm2
  404b17:	c4 c1 61 61 fa       	vpunpcklwd xmm7,xmm3,xmm10
  404b1c:	c5 f9 70 c0 4e       	vpshufd xmm0,xmm0,0x4e
  404b21:	c4 c1 61 61 d2       	vpunpcklwd xmm2,xmm3,xmm10
  404b26:	c5 f9 70 d2 4e       	vpshufd xmm2,xmm2,0x4e
  404b2b:	c4 c1 79 61 d8       	vpunpcklwd xmm3,xmm0,xmm8
  404b30:	c4 c1 79 61 c0       	vpunpcklwd xmm0,xmm0,xmm8
  404b35:	c4 63 41 21 c6 10    	vinsertps xmm8,xmm7,xmm6,0x10
  404b3b:	c4 e3 49 21 f7 40    	vinsertps xmm6,xmm6,xmm7,0x40
  404b41:	c5 f9 70 c0 4e       	vpshufd xmm0,xmm0,0x4e
  404b46:	c4 c1 79 d6 74 cd 08 	vmovq  QWORD PTR [r13+rcx*8+0x8],xmm6
  404b4d:	c4 e3 69 21 f4 10    	vinsertps xmm6,xmm2,xmm4,0x10
  404b53:	c4 e3 59 21 e2 40    	vinsertps xmm4,xmm4,xmm2,0x40
  404b59:	c4 e3 61 21 d5 10    	vinsertps xmm2,xmm3,xmm5,0x10
  404b5f:	c4 c1 79 d6 54 cd 20 	vmovq  QWORD PTR [r13+rcx*8+0x20],xmm2
  404b66:	c4 e3 51 21 eb 40    	vinsertps xmm5,xmm5,xmm3,0x40
  404b6c:	c4 e3 79 21 d1 10    	vinsertps xmm2,xmm0,xmm1,0x10
  404b72:	c4 e3 71 21 c8 40    	vinsertps xmm1,xmm1,xmm0,0x40
  404b78:	c4 41 79 d6 44 cd 00 	vmovq  QWORD PTR [r13+rcx*8+0x0],xmm8
  404b7f:	c4 c1 79 d6 74 cd 10 	vmovq  QWORD PTR [r13+rcx*8+0x10],xmm6
  404b86:	c4 c1 79 d6 64 cd 18 	vmovq  QWORD PTR [r13+rcx*8+0x18],xmm4
  404b8d:	c4 c1 79 d6 6c cd 28 	vmovq  QWORD PTR [r13+rcx*8+0x28],xmm5
  404b94:	c4 c1 79 d6 54 cd 30 	vmovq  QWORD PTR [r13+rcx*8+0x30],xmm2
  404b9b:	c4 c1 79 d6 4c cd 38 	vmovq  QWORD PTR [r13+rcx*8+0x38],xmm1
  404ba2:	0f 84 b9 00 00 00    	je     404c61 <bigint_print_bits+0x941>
  404ba8:	83 e0 f8             	and    eax,0xfffffff8
  404bab:	01 c7                	add    edi,eax
  404bad:	89 f8                	mov    eax,edi
  404baf:	8d 14 fd 00 00 00 00 	lea    edx,[rdi*8+0x0]
  404bb6:	48 8d 0c 06          	lea    rcx,[rsi+rax*1]
  404bba:	29 cf                	sub    edi,ecx
  404bbc:	0f 1f 40 00          	nop    DWORD PTR [rax+0x0]
  404bc0:	0f b6 01             	movzx  eax,BYTE PTR [rcx]
  404bc3:	41 89 d0             	mov    r8d,edx
  404bc6:	89 c6                	mov    esi,eax
  404bc8:	40 c0 ee 07          	shr    sil,0x7
  404bcc:	83 c6 30             	add    esi,0x30
  404bcf:	a8 40                	test   al,0x40
  404bd1:	43 88 74 05 00       	mov    BYTE PTR [r13+r8*1+0x0],sil
  404bd6:	40 0f 95 c6          	setne  sil
  404bda:	44 8d 42 01          	lea    r8d,[rdx+0x1]
  404bde:	83 c6 30             	add    esi,0x30
  404be1:	a8 20                	test   al,0x20
  404be3:	43 88 74 05 00       	mov    BYTE PTR [r13+r8*1+0x0],sil
  404be8:	40 0f 95 c6          	setne  sil
  404bec:	44 8d 42 02          	lea    r8d,[rdx+0x2]
  404bf0:	83 c6 30             	add    esi,0x30
  404bf3:	a8 10                	test   al,0x10
  404bf5:	43 88 74 05 00       	mov    BYTE PTR [r13+r8*1+0x0],sil
  404bfa:	40 0f 95 c6          	setne  sil
  404bfe:	44 8d 42 03          	lea    r8d,[rdx+0x3]
  404c02:	83 c6 30             	add    esi,0x30
  404c05:	a8 08                	test   al,0x8
  404c07:	43 88 74 05 00       	mov    BYTE PTR [r13+r8*1+0x0],sil
  404c0c:	40 0f 95 c6          	setne  sil
  404c10:	44 8d 42 04          	lea    r8d,[rdx+0x4]
  404c14:	83 c6 30             	add    esi,0x30
  404c17:	a8 04                	test   al,0x4
  404c19:	43 88 74 05 00       	mov    BYTE PTR [r13+r8*1+0x0],sil
  404c1e:	40 0f 95 c6          	setne  sil
  404c22:	44 8d 42 05          	lea    r8d,[rdx+0x5]
  404c26:	83 c6 30             	add    esi,0x30
  404c29:	a8 02                	test   al,0x2
  404c2b:	43 88 74 05 00       	mov    BYTE PTR [r13+r8*1+0x0],sil
  404c30:	40 0f 95 c6          	setne  sil
  404c34:	44 8d 42 06          	lea    r8d,[rdx+0x6]
  404c38:	83 e0 01             	and    eax,0x1
  404c3b:	83 c6 30             	add    esi,0x30
  404c3e:	83 c0 30             	add    eax,0x30
  404c41:	48 83 c1 01          	add    rcx,0x1
  404c45:	43 88 74 05 00       	mov    BYTE PTR [r13+r8*1+0x0],sil
  404c4a:	8d 72 07             	lea    esi,[rdx+0x7]
  404c4d:	83 c2 08             	add    edx,0x8
  404c50:	41 88 44 35 00       	mov    BYTE PTR [r13+rsi*1+0x0],al
  404c55:	8d 04 0f             	lea    eax,[rdi+rcx*1]
  404c58:	44 39 f0             	cmp    eax,r14d
  404c5b:	0f 82 5f ff ff ff    	jb     404bc0 <bigint_print_bits+0x8a0>
  404c61:	bf 11 93 41 00       	mov    edi,0x419311
  404c66:	45 31 f6             	xor    r14d,r14d
  404c69:	e8 62 b7 ff ff       	call   4003d0 <puts@plt>
  404c6e:	45 85 e4             	test   r12d,r12d
  404c71:	75 2b                	jne    404c9e <bigint_print_bits+0x97e>
  404c73:	eb 4b                	jmp    404cc0 <bigint_print_bits+0x9a0>
  404c75:	0f 1f 00             	nop    DWORD PTR [rax]
  404c78:	41 f6 c6 1f          	test   r14b,0x1f
  404c7c:	75 0c                	jne    404c8a <bigint_print_bits+0x96a>
  404c7e:	bf 20 93 41 00       	mov    edi,0x419320
  404c83:	31 c0                	xor    eax,eax
  404c85:	e8 a6 b7 ff ff       	call   400430 <printf@plt>
  404c8a:	43 0f be 7c 35 00    	movsx  edi,BYTE PTR [r13+r14*1+0x0]
  404c90:	49 83 c6 01          	add    r14,0x1
  404c94:	e8 f7 b6 ff ff       	call   400390 <putchar@plt>
  404c99:	4c 39 f3             	cmp    rbx,r14
  404c9c:	74 22                	je     404cc0 <bigint_print_bits+0x9a0>
  404c9e:	41 f6 c6 07          	test   r14b,0x7
  404ca2:	75 d4                	jne    404c78 <bigint_print_bits+0x958>
  404ca4:	31 c0                	xor    eax,eax
  404ca6:	bf 25 93 41 00       	mov    edi,0x419325
  404cab:	e8 80 b7 ff ff       	call   400430 <printf@plt>
  404cb0:	41 f6 c6 1f          	test   r14b,0x1f
  404cb4:	75 d4                	jne    404c8a <bigint_print_bits+0x96a>
  404cb6:	4d 85 f6             	test   r14,r14
  404cb9:	74 cf                	je     404c8a <bigint_print_bits+0x96a>
  404cbb:	eb c1                	jmp    404c7e <bigint_print_bits+0x95e>
  404cbd:	0f 1f 00             	nop    DWORD PTR [rax]
  404cc0:	bf 11 93 41 00       	mov    edi,0x419311
  404cc5:	e8 06 b7 ff ff       	call   4003d0 <puts@plt>
  404cca:	48 8d 65 d8          	lea    rsp,[rbp-0x28]
  404cce:	4c 89 ef             	mov    rdi,r13
  404cd1:	5b                   	pop    rbx
  404cd2:	41 5c                	pop    r12
  404cd4:	41 5d                	pop    r13
  404cd6:	41 5e                	pop    r14
  404cd8:	41 5f                	pop    r15
  404cda:	5d                   	pop    rbp
  404cdb:	e9 90 b6 ff ff       	jmp    400370 <free@plt>
  404ce0:	48 8d 65 d8          	lea    rsp,[rbp-0x28]
  404ce4:	bf 19 93 41 00       	mov    edi,0x419319
  404ce9:	5b                   	pop    rbx
  404cea:	41 5c                	pop    r12
  404cec:	41 5d                	pop    r13
  404cee:	41 5e                	pop    r14
  404cf0:	41 5f                	pop    r15
  404cf2:	5d                   	pop    rbp
  404cf3:	e9 d8 b6 ff ff       	jmp    4003d0 <puts@plt>
  404cf8:	44 89 f0             	mov    eax,r14d
  404cfb:	bf 01 00 00 00       	mov    edi,0x1
  404d00:	41 c1 ee 03          	shr    r14d,0x3
  404d04:	c4 e1 fb 2a c0       	vcvtsi2sd xmm0,xmm0,rax
  404d09:	c5 fb 59 05 8f 64 01 	vmulsd xmm0,xmm0,QWORD PTR [rip+0x1648f]        # 41b1a0 <BLAKE2B_IV+0x1a0>
  404d10:	00 
  404d11:	c4 61 fb 2c e0       	vcvttsd2si r12,xmm0
  404d16:	42 8d 1c e5 00 00 00 	lea    ebx,[r12*8+0x0]
  404d1d:	00 
  404d1e:	48 89 de             	mov    rsi,rbx
  404d21:	49 89 dc             	mov    r12,rbx
  404d24:	e8 57 b7 ff ff       	call   400480 <calloc@plt>
  404d29:	49 89 c5             	mov    r13,rax
  404d2c:	e9 83 f6 ff ff       	jmp    4043b4 <bigint_print_bits+0x94>
  404d31:	89 cf                	mov    edi,ecx
  404d33:	31 d2                	xor    edx,edx
  404d35:	e9 b0 fc ff ff       	jmp    4049ea <bigint_print_bits+0x6ca>
  404d3a:	31 c9                	xor    ecx,ecx
  404d3c:	e9 e8 fa ff ff       	jmp    404829 <bigint_print_bits+0x509>
  404d41:	c5 f8 77             	vzeroupper
  404d44:	e9 18 ff ff ff       	jmp    404c61 <bigint_print_bits+0x941>
  404d49:	0f 1f 80 00 00 00 00 	nop    DWORD PTR [rax+0x0]

0000000000404d50 <bigint_print_bits_bigend>:
  404d50:	55                   	push   rbp
  404d51:	48 89 e5             	mov    rbp,rsp
  404d54:	41 57                	push   r15
  404d56:	41 56                	push   r14
  404d58:	41 55                	push   r13
  404d5a:	41 54                	push   r12
  404d5c:	53                   	push   rbx
  404d5d:	48 83 e4 e0          	and    rsp,0xffffffffffffffe0
  404d61:	48 81 ec e0 00 00 00 	sub    rsp,0xe0
  404d68:	44 8b 7f 0c          	mov    r15d,DWORD PTR [rdi+0xc]
  404d6c:	45 85 ff             	test   r15d,r15d
